ARM GAS  C:\Users\ELISHA~1\AppData\Local\Temp\ccPvIcbh.s 			page 1


   1              		.cpu cortex-m0
   2              		.fpu softvfp
   3              		.eabi_attribute 20, 1
   4              		.eabi_attribute 21, 1
   5              		.eabi_attribute 23, 3
   6              		.eabi_attribute 24, 1
   7              		.eabi_attribute 25, 1
   8              		.eabi_attribute 26, 1
   9              		.eabi_attribute 30, 1
  10              		.eabi_attribute 34, 0
  11              		.eabi_attribute 18, 4
  12              		.code	16
  13              		.file	"ADC_SAR_Seq.c"
  14              		.text
  15              	.Ltext0:
  16              		.cfi_sections	.debug_frame
  17              		.section	.text.ADC_SAR_Seq_Init,"ax",%progbits
  18              		.align	2
  19              		.global	ADC_SAR_Seq_Init
  20              		.code	16
  21              		.thumb_func
  22              		.type	ADC_SAR_Seq_Init, %function
  23              	ADC_SAR_Seq_Init:
  24              	.LFB1:
  25              		.file 1 ".\\Generated_Source\\PSoC4\\ADC_SAR_Seq.c"
   1:.\Generated_Source\PSoC4/ADC_SAR_Seq.c **** /*******************************************************************************
   2:.\Generated_Source\PSoC4/ADC_SAR_Seq.c **** * File Name: ADC_SAR_Seq.c
   3:.\Generated_Source\PSoC4/ADC_SAR_Seq.c **** * Version 2.20
   4:.\Generated_Source\PSoC4/ADC_SAR_Seq.c **** *
   5:.\Generated_Source\PSoC4/ADC_SAR_Seq.c **** * Description:
   6:.\Generated_Source\PSoC4/ADC_SAR_Seq.c **** *  This file provides the source code to the API for the Sequencing Successive
   7:.\Generated_Source\PSoC4/ADC_SAR_Seq.c **** *  Approximation ADC Component Component.
   8:.\Generated_Source\PSoC4/ADC_SAR_Seq.c **** *
   9:.\Generated_Source\PSoC4/ADC_SAR_Seq.c **** * Note:
  10:.\Generated_Source\PSoC4/ADC_SAR_Seq.c **** *
  11:.\Generated_Source\PSoC4/ADC_SAR_Seq.c **** ********************************************************************************
  12:.\Generated_Source\PSoC4/ADC_SAR_Seq.c **** * Copyright 2008-2015, Cypress Semiconductor Corporation.  All rights reserved.
  13:.\Generated_Source\PSoC4/ADC_SAR_Seq.c **** * You may use this file only in accordance with the license, terms, conditions,
  14:.\Generated_Source\PSoC4/ADC_SAR_Seq.c **** * disclaimers, and limitations in the end user license agreement accompanying
  15:.\Generated_Source\PSoC4/ADC_SAR_Seq.c **** * the software package with which this file was provided.
  16:.\Generated_Source\PSoC4/ADC_SAR_Seq.c **** *******************************************************************************/
  17:.\Generated_Source\PSoC4/ADC_SAR_Seq.c **** 
  18:.\Generated_Source\PSoC4/ADC_SAR_Seq.c **** #include "ADC_SAR_Seq.h"
  19:.\Generated_Source\PSoC4/ADC_SAR_Seq.c **** 
  20:.\Generated_Source\PSoC4/ADC_SAR_Seq.c **** 
  21:.\Generated_Source\PSoC4/ADC_SAR_Seq.c **** /***************************************
  22:.\Generated_Source\PSoC4/ADC_SAR_Seq.c **** * Global data allocation
  23:.\Generated_Source\PSoC4/ADC_SAR_Seq.c **** ***************************************/
  24:.\Generated_Source\PSoC4/ADC_SAR_Seq.c **** uint8 ADC_SAR_Seq_initVar = 0u;
  25:.\Generated_Source\PSoC4/ADC_SAR_Seq.c **** volatile int16 ADC_SAR_Seq_offset[ADC_SAR_Seq_TOTAL_CHANNELS_NUM];
  26:.\Generated_Source\PSoC4/ADC_SAR_Seq.c **** volatile int32 ADC_SAR_Seq_countsPer10Volt[ADC_SAR_Seq_TOTAL_CHANNELS_NUM];   /* Gain compensation 
  27:.\Generated_Source\PSoC4/ADC_SAR_Seq.c **** 
  28:.\Generated_Source\PSoC4/ADC_SAR_Seq.c **** 
  29:.\Generated_Source\PSoC4/ADC_SAR_Seq.c **** /***************************************
  30:.\Generated_Source\PSoC4/ADC_SAR_Seq.c **** * Local data allocation
  31:.\Generated_Source\PSoC4/ADC_SAR_Seq.c **** ***************************************/
  32:.\Generated_Source\PSoC4/ADC_SAR_Seq.c **** /* Channels configuration generated by customiser */
ARM GAS  C:\Users\ELISHA~1\AppData\Local\Temp\ccPvIcbh.s 			page 2


  33:.\Generated_Source\PSoC4/ADC_SAR_Seq.c **** static const uint32 CYCODE ADC_SAR_Seq_channelsConfig[] = { 0x00000400u, 0x00000400u };
  34:.\Generated_Source\PSoC4/ADC_SAR_Seq.c **** 
  35:.\Generated_Source\PSoC4/ADC_SAR_Seq.c **** 
  36:.\Generated_Source\PSoC4/ADC_SAR_Seq.c **** /*******************************************************************************
  37:.\Generated_Source\PSoC4/ADC_SAR_Seq.c **** * Function Name: ADC_SAR_Seq_Start
  38:.\Generated_Source\PSoC4/ADC_SAR_Seq.c **** ********************************************************************************
  39:.\Generated_Source\PSoC4/ADC_SAR_Seq.c **** *
  40:.\Generated_Source\PSoC4/ADC_SAR_Seq.c **** * Summary:
  41:.\Generated_Source\PSoC4/ADC_SAR_Seq.c **** *  Performs all required initialization for this component
  42:.\Generated_Source\PSoC4/ADC_SAR_Seq.c **** *  and enables the power. The power will be set to the appropriate
  43:.\Generated_Source\PSoC4/ADC_SAR_Seq.c **** *  power based on the clock frequency.
  44:.\Generated_Source\PSoC4/ADC_SAR_Seq.c **** *
  45:.\Generated_Source\PSoC4/ADC_SAR_Seq.c **** * Parameters:
  46:.\Generated_Source\PSoC4/ADC_SAR_Seq.c **** *  None.
  47:.\Generated_Source\PSoC4/ADC_SAR_Seq.c **** *
  48:.\Generated_Source\PSoC4/ADC_SAR_Seq.c **** * Return:
  49:.\Generated_Source\PSoC4/ADC_SAR_Seq.c **** *  None.
  50:.\Generated_Source\PSoC4/ADC_SAR_Seq.c **** *
  51:.\Generated_Source\PSoC4/ADC_SAR_Seq.c **** * Global variables:
  52:.\Generated_Source\PSoC4/ADC_SAR_Seq.c **** *  The ADC_SAR_Seq_initVar variable is used to indicate when/if initial
  53:.\Generated_Source\PSoC4/ADC_SAR_Seq.c **** *  configuration of this component has happened. The variable is initialized to
  54:.\Generated_Source\PSoC4/ADC_SAR_Seq.c **** *  zero and set to 1 the first time ADC_Start() is called. This allows for
  55:.\Generated_Source\PSoC4/ADC_SAR_Seq.c **** *  component Re-Start without re-initialization in all subsequent calls to the
  56:.\Generated_Source\PSoC4/ADC_SAR_Seq.c **** *  ADC_SAR_Seq_Start() routine.
  57:.\Generated_Source\PSoC4/ADC_SAR_Seq.c **** *  If re-initialization of the component is required the variable should be set
  58:.\Generated_Source\PSoC4/ADC_SAR_Seq.c **** *  to zero before call of ADC_SAR_Seq_Start() routine, or the user may call
  59:.\Generated_Source\PSoC4/ADC_SAR_Seq.c **** *  ADC_SAR_Seq_Init() and ADC_SAR_Seq_Enable() as done in the
  60:.\Generated_Source\PSoC4/ADC_SAR_Seq.c **** *  ADC_SAR_Seq_Start() routine.
  61:.\Generated_Source\PSoC4/ADC_SAR_Seq.c **** *
  62:.\Generated_Source\PSoC4/ADC_SAR_Seq.c **** *******************************************************************************/
  63:.\Generated_Source\PSoC4/ADC_SAR_Seq.c **** void ADC_SAR_Seq_Start(void)
  64:.\Generated_Source\PSoC4/ADC_SAR_Seq.c **** {
  65:.\Generated_Source\PSoC4/ADC_SAR_Seq.c ****     /* If not Initialized then initialize all required hardware and software */
  66:.\Generated_Source\PSoC4/ADC_SAR_Seq.c ****     if(ADC_SAR_Seq_initVar == 0u)
  67:.\Generated_Source\PSoC4/ADC_SAR_Seq.c ****     {
  68:.\Generated_Source\PSoC4/ADC_SAR_Seq.c ****         ADC_SAR_Seq_Init();
  69:.\Generated_Source\PSoC4/ADC_SAR_Seq.c ****         ADC_SAR_Seq_initVar = 1u;
  70:.\Generated_Source\PSoC4/ADC_SAR_Seq.c ****     }
  71:.\Generated_Source\PSoC4/ADC_SAR_Seq.c ****     ADC_SAR_Seq_Enable();
  72:.\Generated_Source\PSoC4/ADC_SAR_Seq.c **** }
  73:.\Generated_Source\PSoC4/ADC_SAR_Seq.c **** 
  74:.\Generated_Source\PSoC4/ADC_SAR_Seq.c **** 
  75:.\Generated_Source\PSoC4/ADC_SAR_Seq.c **** /*******************************************************************************
  76:.\Generated_Source\PSoC4/ADC_SAR_Seq.c **** * Function Name: ADC_SAR_Seq_Init
  77:.\Generated_Source\PSoC4/ADC_SAR_Seq.c **** ********************************************************************************
  78:.\Generated_Source\PSoC4/ADC_SAR_Seq.c **** *
  79:.\Generated_Source\PSoC4/ADC_SAR_Seq.c **** * Summary:
  80:.\Generated_Source\PSoC4/ADC_SAR_Seq.c **** *  Initialize component's parameters to the parameters set by user in the
  81:.\Generated_Source\PSoC4/ADC_SAR_Seq.c **** *  customizer of the component placed onto schematic. Usually called in
  82:.\Generated_Source\PSoC4/ADC_SAR_Seq.c **** *  ADC_SAR_Seq_Start().
  83:.\Generated_Source\PSoC4/ADC_SAR_Seq.c **** *
  84:.\Generated_Source\PSoC4/ADC_SAR_Seq.c **** * Parameters:
  85:.\Generated_Source\PSoC4/ADC_SAR_Seq.c **** *  None.
  86:.\Generated_Source\PSoC4/ADC_SAR_Seq.c **** *
  87:.\Generated_Source\PSoC4/ADC_SAR_Seq.c **** * Return:
  88:.\Generated_Source\PSoC4/ADC_SAR_Seq.c **** *  None.
  89:.\Generated_Source\PSoC4/ADC_SAR_Seq.c **** *
ARM GAS  C:\Users\ELISHA~1\AppData\Local\Temp\ccPvIcbh.s 			page 3


  90:.\Generated_Source\PSoC4/ADC_SAR_Seq.c **** * Global variables:
  91:.\Generated_Source\PSoC4/ADC_SAR_Seq.c **** *  The ADC_SAR_Seq_offset variable is initialized.
  92:.\Generated_Source\PSoC4/ADC_SAR_Seq.c **** *
  93:.\Generated_Source\PSoC4/ADC_SAR_Seq.c **** *******************************************************************************/
  94:.\Generated_Source\PSoC4/ADC_SAR_Seq.c **** void ADC_SAR_Seq_Init(void)
  95:.\Generated_Source\PSoC4/ADC_SAR_Seq.c **** {
  26              		.loc 1 95 0
  27              		.cfi_startproc
  28 0000 10B5     		push	{r4, lr}
  29              		.cfi_def_cfa_offset 8
  30              		.cfi_offset 4, -8
  31              		.cfi_offset 14, -4
  96:.\Generated_Source\PSoC4/ADC_SAR_Seq.c ****     uint32 chNum;
  97:.\Generated_Source\PSoC4/ADC_SAR_Seq.c ****     uint32 tmpRegVal;
  98:.\Generated_Source\PSoC4/ADC_SAR_Seq.c ****     int32 counts;
  99:.\Generated_Source\PSoC4/ADC_SAR_Seq.c **** 
 100:.\Generated_Source\PSoC4/ADC_SAR_Seq.c ****     #if(ADC_SAR_Seq_TOTAL_CHANNELS_NUM > 1u)
 101:.\Generated_Source\PSoC4/ADC_SAR_Seq.c ****         static const uint8 CYCODE ADC_SAR_Seq_InputsPlacement[] =
 102:.\Generated_Source\PSoC4/ADC_SAR_Seq.c ****         {
 103:.\Generated_Source\PSoC4/ADC_SAR_Seq.c ****             (uint8)(ADC_SAR_Seq_cy_psoc4_sarmux_8__CH_0_PORT << 4u) |
 104:.\Generated_Source\PSoC4/ADC_SAR_Seq.c ****             (uint8)ADC_SAR_Seq_cy_psoc4_sarmux_8__CH_0_PIN
 105:.\Generated_Source\PSoC4/ADC_SAR_Seq.c ****             ,(uint8)(ADC_SAR_Seq_cy_psoc4_sarmux_8__CH_1_PORT << 4u) |
 106:.\Generated_Source\PSoC4/ADC_SAR_Seq.c ****              (uint8)ADC_SAR_Seq_cy_psoc4_sarmux_8__CH_1_PIN
 107:.\Generated_Source\PSoC4/ADC_SAR_Seq.c ****             #if(ADC_SAR_Seq_TOTAL_CHANNELS_NUM > 2u)
 108:.\Generated_Source\PSoC4/ADC_SAR_Seq.c ****                 ,(uint8)(ADC_SAR_Seq_cy_psoc4_sarmux_8__CH_2_PORT << 4u) |
 109:.\Generated_Source\PSoC4/ADC_SAR_Seq.c ****                  (uint8)ADC_SAR_Seq_cy_psoc4_sarmux_8__CH_2_PIN
 110:.\Generated_Source\PSoC4/ADC_SAR_Seq.c ****             #endif /* End ADC_SAR_Seq_TOTAL_CHANNELS_NUM > 2u */
 111:.\Generated_Source\PSoC4/ADC_SAR_Seq.c ****             #if(ADC_SAR_Seq_TOTAL_CHANNELS_NUM > 3u)
 112:.\Generated_Source\PSoC4/ADC_SAR_Seq.c ****                 ,(uint8)(ADC_SAR_Seq_cy_psoc4_sarmux_8__CH_3_PORT << 4u) |
 113:.\Generated_Source\PSoC4/ADC_SAR_Seq.c ****                  (uint8)ADC_SAR_Seq_cy_psoc4_sarmux_8__CH_3_PIN
 114:.\Generated_Source\PSoC4/ADC_SAR_Seq.c ****             #endif /* End ADC_SAR_Seq_TOTAL_CHANNELS_NUM > 3u */
 115:.\Generated_Source\PSoC4/ADC_SAR_Seq.c ****             #if(ADC_SAR_Seq_TOTAL_CHANNELS_NUM > 4u)
 116:.\Generated_Source\PSoC4/ADC_SAR_Seq.c ****                 ,(uint8)(ADC_SAR_Seq_cy_psoc4_sarmux_8__CH_4_PORT << 4u) |
 117:.\Generated_Source\PSoC4/ADC_SAR_Seq.c ****                  (uint8)ADC_SAR_Seq_cy_psoc4_sarmux_8__CH_4_PIN
 118:.\Generated_Source\PSoC4/ADC_SAR_Seq.c ****             #endif /* End ADC_SAR_Seq_TOTAL_CHANNELS_NUM > 4u */
 119:.\Generated_Source\PSoC4/ADC_SAR_Seq.c ****             #if(ADC_SAR_Seq_TOTAL_CHANNELS_NUM > 5u)
 120:.\Generated_Source\PSoC4/ADC_SAR_Seq.c ****                 ,(uint8)(ADC_SAR_Seq_cy_psoc4_sarmux_8__CH_5_PORT << 4u) |
 121:.\Generated_Source\PSoC4/ADC_SAR_Seq.c ****                  (uint8)ADC_SAR_Seq_cy_psoc4_sarmux_8__CH_5_PIN
 122:.\Generated_Source\PSoC4/ADC_SAR_Seq.c ****             #endif /* End ADC_SAR_Seq_TOTAL_CHANNELS_NUM > 5u */
 123:.\Generated_Source\PSoC4/ADC_SAR_Seq.c ****             #if(ADC_SAR_Seq_TOTAL_CHANNELS_NUM > 6u)
 124:.\Generated_Source\PSoC4/ADC_SAR_Seq.c ****                 ,(uint8)(ADC_SAR_Seq_cy_psoc4_sarmux_8__CH_6_PORT << 4u) |
 125:.\Generated_Source\PSoC4/ADC_SAR_Seq.c ****                  (uint8)ADC_SAR_Seq_cy_psoc4_sarmux_8__CH_6_PIN
 126:.\Generated_Source\PSoC4/ADC_SAR_Seq.c ****             #endif /* End ADC_SAR_Seq_TOTAL_CHANNELS_NUM > 6u */
 127:.\Generated_Source\PSoC4/ADC_SAR_Seq.c ****             #if(ADC_SAR_Seq_TOTAL_CHANNELS_NUM > 7u)
 128:.\Generated_Source\PSoC4/ADC_SAR_Seq.c ****                 ,(uint8)(ADC_SAR_Seq_cy_psoc4_sarmux_8__CH_7_PORT << 4u) |
 129:.\Generated_Source\PSoC4/ADC_SAR_Seq.c ****                  (uint8)ADC_SAR_Seq_cy_psoc4_sarmux_8__CH_7_PIN
 130:.\Generated_Source\PSoC4/ADC_SAR_Seq.c ****             #endif /* End ADC_SAR_Seq_TOTAL_CHANNELS_NUM > 7u */
 131:.\Generated_Source\PSoC4/ADC_SAR_Seq.c ****             #if(ADC_SAR_Seq_TOTAL_CHANNELS_NUM > 8u)
 132:.\Generated_Source\PSoC4/ADC_SAR_Seq.c ****                 ,(uint8)(ADC_SAR_Seq_cy_psoc4_sarmux_8__CH_8_PORT << 4u) |
 133:.\Generated_Source\PSoC4/ADC_SAR_Seq.c ****                  (uint8)ADC_SAR_Seq_cy_psoc4_sarmux_8__CH_8_PIN
 134:.\Generated_Source\PSoC4/ADC_SAR_Seq.c ****             #endif /* End ADC_SAR_Seq_TOTAL_CHANNELS_NUM > 8u */
 135:.\Generated_Source\PSoC4/ADC_SAR_Seq.c ****             #if(ADC_SAR_Seq_TOTAL_CHANNELS_NUM > 9u)
 136:.\Generated_Source\PSoC4/ADC_SAR_Seq.c ****                 ,(uint8)(ADC_SAR_Seq_cy_psoc4_sarmux_8__CH_9_PORT << 4u) |
 137:.\Generated_Source\PSoC4/ADC_SAR_Seq.c ****                  (uint8)ADC_SAR_Seq_cy_psoc4_sarmux_8__CH_9_PIN
 138:.\Generated_Source\PSoC4/ADC_SAR_Seq.c ****             #endif /* End ADC_SAR_Seq_TOTAL_CHANNELS_NUM > 9u */
 139:.\Generated_Source\PSoC4/ADC_SAR_Seq.c ****             #if(ADC_SAR_Seq_TOTAL_CHANNELS_NUM > 10u)
 140:.\Generated_Source\PSoC4/ADC_SAR_Seq.c ****                 ,(uint8)(ADC_SAR_Seq_cy_psoc4_sarmux_8__CH_10_PORT << 4u) |
ARM GAS  C:\Users\ELISHA~1\AppData\Local\Temp\ccPvIcbh.s 			page 4


 141:.\Generated_Source\PSoC4/ADC_SAR_Seq.c ****                  (uint8)ADC_SAR_Seq_cy_psoc4_sarmux_8__CH_10_PIN
 142:.\Generated_Source\PSoC4/ADC_SAR_Seq.c ****             #endif /* End ADC_SAR_Seq_TOTAL_CHANNELS_NUM > 10u */
 143:.\Generated_Source\PSoC4/ADC_SAR_Seq.c ****             #if(ADC_SAR_Seq_TOTAL_CHANNELS_NUM > 11u)
 144:.\Generated_Source\PSoC4/ADC_SAR_Seq.c ****                 ,(uint8)(ADC_SAR_Seq_cy_psoc4_sarmux_8__CH_11_PORT << 4u) |
 145:.\Generated_Source\PSoC4/ADC_SAR_Seq.c ****                  (uint8)ADC_SAR_Seq_cy_psoc4_sarmux_8__CH_11_PIN
 146:.\Generated_Source\PSoC4/ADC_SAR_Seq.c ****             #endif /* End ADC_SAR_Seq_TOTAL_CHANNELS_NUM > 11u */
 147:.\Generated_Source\PSoC4/ADC_SAR_Seq.c ****             #if(ADC_SAR_Seq_TOTAL_CHANNELS_NUM > 12u)
 148:.\Generated_Source\PSoC4/ADC_SAR_Seq.c ****                 ,(uint8)(ADC_SAR_Seq_cy_psoc4_sarmux_8__CH_12_PORT << 4u) |
 149:.\Generated_Source\PSoC4/ADC_SAR_Seq.c ****                  (uint8)ADC_SAR_Seq_cy_psoc4_sarmux_8__CH_12_PIN
 150:.\Generated_Source\PSoC4/ADC_SAR_Seq.c ****             #endif /* End ADC_SAR_Seq_TOTAL_CHANNELS_NUM > 12u */
 151:.\Generated_Source\PSoC4/ADC_SAR_Seq.c ****             #if(ADC_SAR_Seq_TOTAL_CHANNELS_NUM > 13u)
 152:.\Generated_Source\PSoC4/ADC_SAR_Seq.c ****                 ,(uint8)(ADC_SAR_Seq_cy_psoc4_sarmux_8__CH_13_PORT << 4u) |
 153:.\Generated_Source\PSoC4/ADC_SAR_Seq.c ****                  (uint8)ADC_SAR_Seq_cy_psoc4_sarmux_8__CH_13_PIN
 154:.\Generated_Source\PSoC4/ADC_SAR_Seq.c ****             #endif /* End ADC_SAR_Seq_TOTAL_CHANNELS_NUM > 13u */
 155:.\Generated_Source\PSoC4/ADC_SAR_Seq.c ****             #if(ADC_SAR_Seq_TOTAL_CHANNELS_NUM > 14u)
 156:.\Generated_Source\PSoC4/ADC_SAR_Seq.c ****                 ,(uint8)(ADC_SAR_Seq_cy_psoc4_sarmux_8__CH_14_PORT << 4u) |
 157:.\Generated_Source\PSoC4/ADC_SAR_Seq.c ****                  (uint8)ADC_SAR_Seq_cy_psoc4_sarmux_8__CH_14_PIN
 158:.\Generated_Source\PSoC4/ADC_SAR_Seq.c ****             #endif /* End ADC_SAR_Seq_TOTAL_CHANNELS_NUM > 14u */
 159:.\Generated_Source\PSoC4/ADC_SAR_Seq.c ****             #if(ADC_SAR_Seq_TOTAL_CHANNELS_NUM > 15u)
 160:.\Generated_Source\PSoC4/ADC_SAR_Seq.c ****                 ,(uint8)(ADC_SAR_Seq_cy_psoc4_sarmux_8__CH_15_PORT << 4u) |
 161:.\Generated_Source\PSoC4/ADC_SAR_Seq.c ****                  (uint8)ADC_SAR_Seq_cy_psoc4_sarmux_8__CH_15_PIN
 162:.\Generated_Source\PSoC4/ADC_SAR_Seq.c ****             #endif /* End ADC_SAR_Seq_TOTAL_CHANNELS_NUM > 15u */
 163:.\Generated_Source\PSoC4/ADC_SAR_Seq.c ****             #if(ADC_SAR_Seq_TOTAL_CHANNELS_NUM > 16u)
 164:.\Generated_Source\PSoC4/ADC_SAR_Seq.c ****                 ,(uint8)(ADC_SAR_Seq_cy_psoc4_sarmux_8__CH_16_PORT << 4u) |
 165:.\Generated_Source\PSoC4/ADC_SAR_Seq.c ****                  (uint8)ADC_SAR_Seq_cy_psoc4_sarmux_8__CH_16_PIN
 166:.\Generated_Source\PSoC4/ADC_SAR_Seq.c ****             #endif /* End ADC_SAR_Seq_TOTAL_CHANNELS_NUM > 16u */
 167:.\Generated_Source\PSoC4/ADC_SAR_Seq.c ****         };
 168:.\Generated_Source\PSoC4/ADC_SAR_Seq.c ****     #endif /* End ADC_SAR_Seq_TOTAL_CHANNELS_NUM > 1u */
 169:.\Generated_Source\PSoC4/ADC_SAR_Seq.c **** 
 170:.\Generated_Source\PSoC4/ADC_SAR_Seq.c ****     #if(ADC_SAR_Seq_IRQ_REMOVE == 0u)
 171:.\Generated_Source\PSoC4/ADC_SAR_Seq.c ****         /* Start and set interrupt vector */
 172:.\Generated_Source\PSoC4/ADC_SAR_Seq.c ****         CyIntSetPriority(ADC_SAR_Seq_INTC_NUMBER, ADC_SAR_Seq_INTC_PRIOR_NUMBER);
  32              		.loc 1 172 0
  33 0002 0E20     		mov	r0, #14
  34 0004 0321     		mov	r1, #3
  35 0006 FFF7FEFF 		bl	CyIntSetPriority
  36              	.LVL0:
 173:.\Generated_Source\PSoC4/ADC_SAR_Seq.c ****         (void)CyIntSetVector(ADC_SAR_Seq_INTC_NUMBER, &ADC_SAR_Seq_ISR);
  37              		.loc 1 173 0
  38 000a 0E20     		mov	r0, #14
  39 000c 5249     		ldr	r1, .L14
  40 000e FFF7FEFF 		bl	CyIntSetVector
  41              	.LVL1:
 174:.\Generated_Source\PSoC4/ADC_SAR_Seq.c ****     #endif   /* End ADC_SAR_Seq_IRQ_REMOVE */
 175:.\Generated_Source\PSoC4/ADC_SAR_Seq.c **** 
 176:.\Generated_Source\PSoC4/ADC_SAR_Seq.c ****     /* Init SAR and MUX registers */
 177:.\Generated_Source\PSoC4/ADC_SAR_Seq.c ****     ADC_SAR_Seq_SAR_CHAN_EN_REG = ADC_SAR_Seq_DEFAULT_EN_CHANNELS;
  42              		.loc 1 177 0
  43 0012 0122     		mov	r2, #1
  44 0014 514B     		ldr	r3, .L14+4
  45 0016 1A60     		str	r2, [r3]
 178:.\Generated_Source\PSoC4/ADC_SAR_Seq.c ****     ADC_SAR_Seq_SAR_CTRL_REG |= ADC_SAR_Seq_DEFAULT_CTRL_REG_CFG | 
 179:.\Generated_Source\PSoC4/ADC_SAR_Seq.c ****         /* Enable the SAR internal pump when global pump is enabled */
 180:.\Generated_Source\PSoC4/ADC_SAR_Seq.c ****         (((ADC_SAR_Seq_PUMP_CTRL_REG & ADC_SAR_Seq_PUMP_CTRL_ENABLED) != 0u) ? 
  46              		.loc 1 180 0
  47 0018 514B     		ldr	r3, .L14+8
  48 001a 1B68     		ldr	r3, [r3]
ARM GAS  C:\Users\ELISHA~1\AppData\Local\Temp\ccPvIcbh.s 			page 5


 178:.\Generated_Source\PSoC4/ADC_SAR_Seq.c ****     ADC_SAR_Seq_SAR_CTRL_REG |= ADC_SAR_Seq_DEFAULT_CTRL_REG_CFG | 
  49              		.loc 1 178 0
  50 001c 002B     		cmp	r3, #0
  51 001e 01DA     		bge	.L12
  52 0020 5049     		ldr	r1, .L14+12
  53 0022 00E0     		b	.L2
  54              	.L12:
  55 0024 5049     		ldr	r1, .L14+16
  56              	.L2:
 178:.\Generated_Source\PSoC4/ADC_SAR_Seq.c ****     ADC_SAR_Seq_SAR_CTRL_REG |= ADC_SAR_Seq_DEFAULT_CTRL_REG_CFG | 
  57              		.loc 1 178 0 is_stmt 0 discriminator 4
  58 0026 514A     		ldr	r2, .L14+20
  59 0028 1368     		ldr	r3, [r2]
  60 002a 0B43     		orr	r3, r1
  61 002c 1360     		str	r3, [r2]
 181:.\Generated_Source\PSoC4/ADC_SAR_Seq.c ****         ADC_SAR_Seq_BOOSTPUMP_EN : 0u);
 182:.\Generated_Source\PSoC4/ADC_SAR_Seq.c ****     ADC_SAR_Seq_SAR_SAMPLE_CTRL_REG = ADC_SAR_Seq_DEFAULT_SAMPLE_CTRL_REG_CFG;
  62              		.loc 1 182 0 is_stmt 1 discriminator 4
  63 002e 504A     		ldr	r2, .L14+24
  64 0030 504B     		ldr	r3, .L14+28
  65 0032 1A60     		str	r2, [r3]
 183:.\Generated_Source\PSoC4/ADC_SAR_Seq.c ****     ADC_SAR_Seq_SAR_RANGE_THRES_REG = ADC_SAR_Seq_DEFAULT_RANGE_THRES_REG_CFG;
  66              		.loc 1 183 0 discriminator 4
  67 0034 504A     		ldr	r2, .L14+32
  68 0036 514B     		ldr	r3, .L14+36
  69 0038 1A60     		str	r2, [r3]
 184:.\Generated_Source\PSoC4/ADC_SAR_Seq.c ****     ADC_SAR_Seq_SAR_RANGE_COND_REG  = ADC_SAR_Seq_COMPARE_MODE;
  70              		.loc 1 184 0 discriminator 4
  71 003a 8022     		mov	r2, #128
  72 003c D205     		lsl	r2, r2, #23
  73 003e 504B     		ldr	r3, .L14+40
  74 0040 1A60     		str	r2, [r3]
 185:.\Generated_Source\PSoC4/ADC_SAR_Seq.c ****     ADC_SAR_Seq_SAR_SAMPLE_TIME01_REG = ADC_SAR_Seq_DEFAULT_SAMPLE_TIME01_REG_CFG;
  75              		.loc 1 185 0 discriminator 4
  76 0042 504B     		ldr	r3, .L14+44
  77 0044 504A     		ldr	r2, .L14+48
  78 0046 1360     		str	r3, [r2]
 186:.\Generated_Source\PSoC4/ADC_SAR_Seq.c ****     ADC_SAR_Seq_SAR_SAMPLE_TIME23_REG = ADC_SAR_Seq_DEFAULT_SAMPLE_TIME23_REG_CFG;
  79              		.loc 1 186 0 discriminator 4
  80 0048 504A     		ldr	r2, .L14+52
  81 004a 1360     		str	r3, [r2]
 187:.\Generated_Source\PSoC4/ADC_SAR_Seq.c ****     
 188:.\Generated_Source\PSoC4/ADC_SAR_Seq.c ****     /* Connect Vm to VSSA when even one channel is single-ended or multiple channels configured */
 189:.\Generated_Source\PSoC4/ADC_SAR_Seq.c ****     #if(ADC_SAR_Seq_DEFAULT_MUX_SWITCH0 != 0u)
 190:.\Generated_Source\PSoC4/ADC_SAR_Seq.c ****         ADC_SAR_Seq_MUX_SWITCH0_REG |= ADC_SAR_Seq_DEFAULT_MUX_SWITCH0;
  82              		.loc 1 190 0 discriminator 4
  83 004c 504B     		ldr	r3, .L14+56
  84 004e 1A68     		ldr	r2, [r3]
  85 0050 8021     		mov	r1, #128
  86 0052 4902     		lsl	r1, r1, #9
  87 0054 0A43     		orr	r2, r1
  88 0056 1A60     		str	r2, [r3]
 191:.\Generated_Source\PSoC4/ADC_SAR_Seq.c ****         /* Set MUX_HW_CTRL_VSSA in MUX_SWITCH_HW_CTRL when multiple channels enabled */
 192:.\Generated_Source\PSoC4/ADC_SAR_Seq.c ****         #if(ADC_SAR_Seq_TOTAL_CHANNELS_NUM > 1u)
 193:.\Generated_Source\PSoC4/ADC_SAR_Seq.c ****             ADC_SAR_Seq_MUX_SWITCH_HW_CTRL_REG |= ADC_SAR_Seq_DEFAULT_MUX_SWITCH0;
  89              		.loc 1 193 0 discriminator 4
  90 0058 4E4A     		ldr	r2, .L14+60
ARM GAS  C:\Users\ELISHA~1\AppData\Local\Temp\ccPvIcbh.s 			page 6


  91 005a 1368     		ldr	r3, [r2]
  92 005c 0B43     		orr	r3, r1
  93 005e 1360     		str	r3, [r2]
 194:.\Generated_Source\PSoC4/ADC_SAR_Seq.c ****         #endif /* ADC_SAR_Seq_TOTAL_CHANNELS_NUM > 1u */
 195:.\Generated_Source\PSoC4/ADC_SAR_Seq.c ****     #endif /*ADC_SAR_Seq_CHANNELS_MODE !=0 */
 196:.\Generated_Source\PSoC4/ADC_SAR_Seq.c **** 
 197:.\Generated_Source\PSoC4/ADC_SAR_Seq.c ****     ADC_SAR_Seq_SAR_SATURATE_INTR_MASK_REG = 0u;
  94              		.loc 1 197 0 discriminator 4
  95 0060 0023     		mov	r3, #0
  96 0062 4D4A     		ldr	r2, .L14+64
  97 0064 1360     		str	r3, [r2]
 198:.\Generated_Source\PSoC4/ADC_SAR_Seq.c ****     ADC_SAR_Seq_SAR_RANGE_INTR_MASK_REG = 0u;
  98              		.loc 1 198 0 discriminator 4
  99 0066 4D4A     		ldr	r2, .L14+68
 100 0068 1360     		str	r3, [r2]
 199:.\Generated_Source\PSoC4/ADC_SAR_Seq.c ****     ADC_SAR_Seq_SAR_INTR_MASK_REG = ADC_SAR_Seq_SAR_INTR_MASK;
 101              		.loc 1 199 0 discriminator 4
 102 006a 1122     		mov	r2, #17
 103 006c 4C4B     		ldr	r3, .L14+72
 104 006e 1A60     		str	r2, [r3]
 200:.\Generated_Source\PSoC4/ADC_SAR_Seq.c **** 
 201:.\Generated_Source\PSoC4/ADC_SAR_Seq.c ****     #if(ADC_SAR_Seq_CY_SAR_IP_VER == ADC_SAR_Seq_CY_SAR_IP_VER0)
 202:.\Generated_Source\PSoC4/ADC_SAR_Seq.c ****         ADC_SAR_Seq_ANA_TRIM_REG = ADC_SAR_Seq_TRIM_COEF;
 105              		.loc 1 202 0 discriminator 4
 106 0070 0F3A     		sub	r2, r2, #15
 107 0072 4C4B     		ldr	r3, .L14+76
 108 0074 1A60     		str	r2, [r3]
 203:.\Generated_Source\PSoC4/ADC_SAR_Seq.c ****     #endif /* (ADC_SAR_Seq_CY_SAR_IP_VER == ADC_SAR_Seq_CY_SAR_IP_VER0) */
 204:.\Generated_Source\PSoC4/ADC_SAR_Seq.c **** 
 205:.\Generated_Source\PSoC4/ADC_SAR_Seq.c ****     /* Read and modify default configuration based on characterization */
 206:.\Generated_Source\PSoC4/ADC_SAR_Seq.c ****     tmpRegVal = ADC_SAR_Seq_SAR_DFT_CTRL_REG;
 109              		.loc 1 206 0 discriminator 4
 110 0076 4C49     		ldr	r1, .L14+80
 111 0078 0A68     		ldr	r2, [r1]
 112              	.LVL2:
 207:.\Generated_Source\PSoC4/ADC_SAR_Seq.c ****     tmpRegVal &= (uint32)~ADC_SAR_Seq_DCEN;
 113              		.loc 1 207 0 discriminator 4
 114 007a 4C4B     		ldr	r3, .L14+84
 115 007c 1340     		and	r3, r2
 116              	.LVL3:
 208:.\Generated_Source\PSoC4/ADC_SAR_Seq.c ****     
 209:.\Generated_Source\PSoC4/ADC_SAR_Seq.c ****     #if(ADC_SAR_Seq_CY_SAR_IP_VER == ADC_SAR_Seq_CY_SAR_IP_VER0)
 210:.\Generated_Source\PSoC4/ADC_SAR_Seq.c ****         #if(ADC_SAR_Seq_NOMINAL_CLOCK_FREQ > (ADC_SAR_Seq_MAX_FREQUENCY / 2))
 211:.\Generated_Source\PSoC4/ADC_SAR_Seq.c ****             tmpRegVal |= ADC_SAR_Seq_SEL_CSEL_DFT_CHAR;
 212:.\Generated_Source\PSoC4/ADC_SAR_Seq.c ****         #else  /* clock speed < 9 Mhz */
 213:.\Generated_Source\PSoC4/ADC_SAR_Seq.c ****             tmpRegVal |= ADC_SAR_Seq_DLY_INC;
 117              		.loc 1 213 0 discriminator 4
 118 007e 0122     		mov	r2, #1
 119 0080 1343     		orr	r3, r2
 120              	.LVL4:
 214:.\Generated_Source\PSoC4/ADC_SAR_Seq.c ****         #endif /* clock speed > 9 Mhz */
 215:.\Generated_Source\PSoC4/ADC_SAR_Seq.c ****     #else
 216:.\Generated_Source\PSoC4/ADC_SAR_Seq.c ****         #if ((ADC_SAR_Seq_DEFAULT_VREF_SEL == ADC_SAR_Seq__INTERNAL1024) || \
 217:.\Generated_Source\PSoC4/ADC_SAR_Seq.c ****              (ADC_SAR_Seq_DEFAULT_VREF_SEL == ADC_SAR_Seq__INTERNALVREF))
 218:.\Generated_Source\PSoC4/ADC_SAR_Seq.c ****             tmpRegVal |= ADC_SAR_Seq_DLY_INC;
 219:.\Generated_Source\PSoC4/ADC_SAR_Seq.c ****         #else
 220:.\Generated_Source\PSoC4/ADC_SAR_Seq.c ****             tmpRegVal |= ADC_SAR_Seq_DCEN;
ARM GAS  C:\Users\ELISHA~1\AppData\Local\Temp\ccPvIcbh.s 			page 7


 221:.\Generated_Source\PSoC4/ADC_SAR_Seq.c ****             tmpRegVal &= (uint32)~ADC_SAR_Seq_DLY_INC;
 222:.\Generated_Source\PSoC4/ADC_SAR_Seq.c ****         #endif /* ((ADC_SAR_Seq_DEFAULT_VREF_SEL == ADC_SAR_Seq__INTERNAL1024) || \
 223:.\Generated_Source\PSoC4/ADC_SAR_Seq.c ****                    (ADC_SAR_Seq_DEFAULT_VREF_SEL == ADC_SAR_Seq__INTERNALVREF)) */
 224:.\Generated_Source\PSoC4/ADC_SAR_Seq.c ****     #endif /* (ADC_SAR_Seq_CY_SAR_IP_VER == ADC_SAR_Seq_CY_SAR_IP_VER0) */
 225:.\Generated_Source\PSoC4/ADC_SAR_Seq.c ****     
 226:.\Generated_Source\PSoC4/ADC_SAR_Seq.c ****     ADC_SAR_Seq_SAR_DFT_CTRL_REG = tmpRegVal;
 121              		.loc 1 226 0 discriminator 4
 122 0082 0B60     		str	r3, [r1]
 123              	.LVL5:
 227:.\Generated_Source\PSoC4/ADC_SAR_Seq.c **** 
 228:.\Generated_Source\PSoC4/ADC_SAR_Seq.c ****     #if(ADC_SAR_Seq_MAX_RESOLUTION != ADC_SAR_Seq_RESOLUTION_12)
 229:.\Generated_Source\PSoC4/ADC_SAR_Seq.c ****         ADC_SAR_Seq_WOUNDING_REG = ADC_SAR_Seq_ALT_WOUNDING;
 230:.\Generated_Source\PSoC4/ADC_SAR_Seq.c ****     #endif /* ADC_SAR_Seq_MAX_RESOLUTION != ADC_SAR_Seq_RESOLUTION_12 */
 231:.\Generated_Source\PSoC4/ADC_SAR_Seq.c **** 
 232:.\Generated_Source\PSoC4/ADC_SAR_Seq.c ****     for(chNum = 0u; chNum < ADC_SAR_Seq_TOTAL_CHANNELS_NUM; chNum++)
 124              		.loc 1 232 0 discriminator 4
 125 0084 0022     		mov	r2, #0
 126 0086 64E0     		b	.L3
 127              	.LVL6:
 128              	.L11:
 233:.\Generated_Source\PSoC4/ADC_SAR_Seq.c ****     {
 234:.\Generated_Source\PSoC4/ADC_SAR_Seq.c ****         tmpRegVal = (ADC_SAR_Seq_channelsConfig[chNum] & ADC_SAR_Seq_CHANNEL_CONFIG_MASK);
 129              		.loc 1 234 0
 130 0088 4949     		ldr	r1, .L14+88
 131 008a 9300     		lsl	r3, r2, #2
 132 008c 5858     		ldr	r0, [r3, r1]
 133 008e DC23     		mov	r3, #220
 134 0090 9B01     		lsl	r3, r3, #6
 135 0092 0340     		and	r3, r0
 136              	.LVL7:
 235:.\Generated_Source\PSoC4/ADC_SAR_Seq.c ****         #if(ADC_SAR_Seq_TOTAL_CHANNELS_NUM > 1u)
 236:.\Generated_Source\PSoC4/ADC_SAR_Seq.c ****             tmpRegVal |= ADC_SAR_Seq_InputsPlacement[chNum];
 137              		.loc 1 236 0
 138 0094 8918     		add	r1, r1, r2
 139 0096 097A     		ldrb	r1, [r1, #8]
 140 0098 0B43     		orr	r3, r1
 141              	.LVL8:
 237:.\Generated_Source\PSoC4/ADC_SAR_Seq.c ****         #endif /* End ADC_SAR_Seq_TOTAL_CHANNELS_NUM > 1u */
 238:.\Generated_Source\PSoC4/ADC_SAR_Seq.c ****         
 239:.\Generated_Source\PSoC4/ADC_SAR_Seq.c ****         
 240:.\Generated_Source\PSoC4/ADC_SAR_Seq.c ****         /* When the part is limited to 10-bit then the SUB_RESOLUTION bit
 241:.\Generated_Source\PSoC4/ADC_SAR_Seq.c ****         *  will be ignored and the RESOLUTION bit selects between 10-bit
 242:.\Generated_Source\PSoC4/ADC_SAR_Seq.c ****         *  (0) and 8-bit (1) resolution.
 243:.\Generated_Source\PSoC4/ADC_SAR_Seq.c ****         */
 244:.\Generated_Source\PSoC4/ADC_SAR_Seq.c ****         #if((ADC_SAR_Seq_MAX_RESOLUTION != ADC_SAR_Seq_RESOLUTION_12) && \
 245:.\Generated_Source\PSoC4/ADC_SAR_Seq.c ****             (ADC_SAR_Seq_ALT_WOUNDING == ADC_SAR_Seq_WOUNDING_10BIT))
 246:.\Generated_Source\PSoC4/ADC_SAR_Seq.c ****             tmpRegVal &= (uint32)(~ADC_SAR_Seq_ALT_RESOLUTION_ON);
 247:.\Generated_Source\PSoC4/ADC_SAR_Seq.c ****         #endif /* ADC_SAR_Seq_MAX_RESOLUTION != ADC_SAR_Seq_RESOLUTION_12 */
 248:.\Generated_Source\PSoC4/ADC_SAR_Seq.c **** 
 249:.\Generated_Source\PSoC4/ADC_SAR_Seq.c ****         #if(ADC_SAR_Seq_INJ_CHANNEL_ENABLED)
 250:.\Generated_Source\PSoC4/ADC_SAR_Seq.c ****         if(chNum < ADC_SAR_Seq_SEQUENCED_CHANNELS_NUM)
 142              		.loc 1 250 0
 143 009a 002A     		cmp	r2, #0
 144 009c 1CD1     		bne	.L4
 251:.\Generated_Source\PSoC4/ADC_SAR_Seq.c ****         #endif /* ADC_SAR_Seq_INJ_CHANNEL_ENABLED */
 252:.\Generated_Source\PSoC4/ADC_SAR_Seq.c ****         {
 253:.\Generated_Source\PSoC4/ADC_SAR_Seq.c ****             CY_SET_REG32((reg32 *)(ADC_SAR_Seq_SAR_CHAN_CONFIG_IND + (uint32)(chNum << 2)), tmpRegV
ARM GAS  C:\Users\ELISHA~1\AppData\Local\Temp\ccPvIcbh.s 			page 8


 145              		.loc 1 253 0
 146 009e 9100     		lsl	r1, r2, #2
 147 00a0 444C     		ldr	r4, .L14+92
 148 00a2 A446     		mov	ip, r4
 149 00a4 6144     		add	r1, r1, ip
 150 00a6 0B60     		str	r3, [r1]
 254:.\Generated_Source\PSoC4/ADC_SAR_Seq.c **** 
 255:.\Generated_Source\PSoC4/ADC_SAR_Seq.c ****             if((ADC_SAR_Seq_channelsConfig[chNum] & ADC_SAR_Seq_IS_SATURATE_EN_MASK) != 0u)
 151              		.loc 1 255 0
 152 00a8 C307     		lsl	r3, r0, #31
 153 00aa 07D5     		bpl	.L5
 154              	.LVL9:
 256:.\Generated_Source\PSoC4/ADC_SAR_Seq.c ****             {
 257:.\Generated_Source\PSoC4/ADC_SAR_Seq.c ****                 ADC_SAR_Seq_SAR_SATURATE_INTR_MASK_REG |= (uint16)((uint16)1 << chNum);
 155              		.loc 1 257 0
 156 00ac 3A49     		ldr	r1, .L14+64
 157              	.LVL10:
 158 00ae 0868     		ldr	r0, [r1]
 159 00b0 8023     		mov	r3, #128
 160 00b2 5B02     		lsl	r3, r3, #9
 161 00b4 9340     		lsl	r3, r3, r2
 162 00b6 1B0C     		lsr	r3, r3, #16
 163 00b8 0343     		orr	r3, r0
 164 00ba 0B60     		str	r3, [r1]
 165              	.LVL11:
 166              	.L5:
 258:.\Generated_Source\PSoC4/ADC_SAR_Seq.c ****             }
 259:.\Generated_Source\PSoC4/ADC_SAR_Seq.c **** 
 260:.\Generated_Source\PSoC4/ADC_SAR_Seq.c ****             if((ADC_SAR_Seq_channelsConfig[chNum] & ADC_SAR_Seq_IS_RANGE_CTRL_EN_MASK) != 0u)
 167              		.loc 1 260 0
 168 00bc 9300     		lsl	r3, r2, #2
 169 00be 3C49     		ldr	r1, .L14+88
 170              	.LVL12:
 171 00c0 5B58     		ldr	r3, [r3, r1]
 172 00c2 9B07     		lsl	r3, r3, #30
 173 00c4 21D5     		bpl	.L6
 261:.\Generated_Source\PSoC4/ADC_SAR_Seq.c ****             {
 262:.\Generated_Source\PSoC4/ADC_SAR_Seq.c ****                 ADC_SAR_Seq_SAR_RANGE_INTR_MASK_REG |= (uint16)((uint16)1 << chNum);
 174              		.loc 1 262 0
 175 00c6 3549     		ldr	r1, .L14+68
 176              	.LVL13:
 177 00c8 0868     		ldr	r0, [r1]
 178 00ca 8023     		mov	r3, #128
 179 00cc 5B02     		lsl	r3, r3, #9
 180 00ce 9340     		lsl	r3, r3, r2
 181 00d0 1B0C     		lsr	r3, r3, #16
 182 00d2 0343     		orr	r3, r0
 183 00d4 0B60     		str	r3, [r1]
 184 00d6 18E0     		b	.L6
 185              	.LVL14:
 186              	.L4:
 263:.\Generated_Source\PSoC4/ADC_SAR_Seq.c ****             }
 264:.\Generated_Source\PSoC4/ADC_SAR_Seq.c ****         }
 265:.\Generated_Source\PSoC4/ADC_SAR_Seq.c ****         #if(ADC_SAR_Seq_INJ_CHANNEL_ENABLED)
 266:.\Generated_Source\PSoC4/ADC_SAR_Seq.c ****             else
 267:.\Generated_Source\PSoC4/ADC_SAR_Seq.c ****             {
 268:.\Generated_Source\PSoC4/ADC_SAR_Seq.c ****                 CY_SET_REG32(ADC_SAR_Seq_SAR_INJ_CHAN_CONFIG_PTR, tmpRegVal | ADC_SAR_Seq_INJ_TAILG
ARM GAS  C:\Users\ELISHA~1\AppData\Local\Temp\ccPvIcbh.s 			page 9


 187              		.loc 1 268 0
 188 00d8 8021     		mov	r1, #128
 189 00da C905     		lsl	r1, r1, #23
 190 00dc 0B43     		orr	r3, r1
 191              	.LVL15:
 192 00de 3649     		ldr	r1, .L14+96
 193 00e0 0B60     		str	r3, [r1]
 269:.\Generated_Source\PSoC4/ADC_SAR_Seq.c **** 
 270:.\Generated_Source\PSoC4/ADC_SAR_Seq.c ****                 if((ADC_SAR_Seq_channelsConfig[chNum] & ADC_SAR_Seq_IS_SATURATE_EN_MASK) != 0u)
 194              		.loc 1 270 0
 195 00e2 9300     		lsl	r3, r2, #2
 196 00e4 3249     		ldr	r1, .L14+88
 197              	.LVL16:
 198 00e6 5B58     		ldr	r3, [r3, r1]
 199 00e8 DB07     		lsl	r3, r3, #31
 200 00ea 04D5     		bpl	.L7
 271:.\Generated_Source\PSoC4/ADC_SAR_Seq.c ****                 {
 272:.\Generated_Source\PSoC4/ADC_SAR_Seq.c ****                     ADC_SAR_Seq_SAR_INTR_MASK_REG |= ADC_SAR_Seq_INJ_SATURATE_MASK;
 201              		.loc 1 272 0
 202 00ec 2C49     		ldr	r1, .L14+72
 203              	.LVL17:
 204 00ee 0868     		ldr	r0, [r1]
 205              	.LVL18:
 206 00f0 2023     		mov	r3, #32
 207 00f2 0343     		orr	r3, r0
 208 00f4 0B60     		str	r3, [r1]
 209              	.L7:
 273:.\Generated_Source\PSoC4/ADC_SAR_Seq.c ****                 }
 274:.\Generated_Source\PSoC4/ADC_SAR_Seq.c **** 
 275:.\Generated_Source\PSoC4/ADC_SAR_Seq.c ****                 if((ADC_SAR_Seq_channelsConfig[chNum] & ADC_SAR_Seq_IS_RANGE_CTRL_EN_MASK) != 0u)
 210              		.loc 1 275 0
 211 00f6 9300     		lsl	r3, r2, #2
 212 00f8 2D49     		ldr	r1, .L14+88
 213              	.LVL19:
 214 00fa 5B58     		ldr	r3, [r3, r1]
 215 00fc 9B07     		lsl	r3, r3, #30
 216 00fe 04D5     		bpl	.L6
 276:.\Generated_Source\PSoC4/ADC_SAR_Seq.c ****                 {
 277:.\Generated_Source\PSoC4/ADC_SAR_Seq.c ****                     ADC_SAR_Seq_SAR_INTR_MASK_REG |= ADC_SAR_Seq_INJ_RANGE_MASK;
 217              		.loc 1 277 0
 218 0100 2749     		ldr	r1, .L14+72
 219              	.LVL20:
 220 0102 0868     		ldr	r0, [r1]
 221 0104 4023     		mov	r3, #64
 222 0106 0343     		orr	r3, r0
 223 0108 0B60     		str	r3, [r1]
 224              	.L6:
 278:.\Generated_Source\PSoC4/ADC_SAR_Seq.c ****                 }
 279:.\Generated_Source\PSoC4/ADC_SAR_Seq.c ****             }
 280:.\Generated_Source\PSoC4/ADC_SAR_Seq.c ****         #endif /* ADC_SAR_Seq_INJ_CHANNEL_ENABLED */
 281:.\Generated_Source\PSoC4/ADC_SAR_Seq.c **** 
 282:.\Generated_Source\PSoC4/ADC_SAR_Seq.c ****         if((ADC_SAR_Seq_channelsConfig[chNum] & ADC_SAR_Seq_ALT_RESOLUTION_ON) != 0u)
 225              		.loc 1 282 0
 226 010a 9300     		lsl	r3, r2, #2
 227 010c 2849     		ldr	r1, .L14+88
 228              	.LVL21:
 229 010e 5958     		ldr	r1, [r3, r1]
ARM GAS  C:\Users\ELISHA~1\AppData\Local\Temp\ccPvIcbh.s 			page 10


 230              	.LVL22:
 231 0110 8B05     		lsl	r3, r1, #22
 232 0112 02D5     		bpl	.L13
 283:.\Generated_Source\PSoC4/ADC_SAR_Seq.c ****         {
 284:.\Generated_Source\PSoC4/ADC_SAR_Seq.c ****                counts = (int32)ADC_SAR_Seq_DEFAULT_MAX_WRK_ALT;
 233              		.loc 1 284 0
 234 0114 8020     		mov	r0, #128
 235 0116 4000     		lsl	r0, r0, #1
 236 0118 01E0     		b	.L8
 237              	.L13:
 285:.\Generated_Source\PSoC4/ADC_SAR_Seq.c ****         }
 286:.\Generated_Source\PSoC4/ADC_SAR_Seq.c ****         else
 287:.\Generated_Source\PSoC4/ADC_SAR_Seq.c ****         {
 288:.\Generated_Source\PSoC4/ADC_SAR_Seq.c ****                counts = (int32)ADC_SAR_Seq_SAR_WRK_MAX_12BIT;
 238              		.loc 1 288 0
 239 011a 8020     		mov	r0, #128
 240 011c 4001     		lsl	r0, r0, #5
 241              	.L8:
 242              	.LVL23:
 289:.\Generated_Source\PSoC4/ADC_SAR_Seq.c ****         }
 290:.\Generated_Source\PSoC4/ADC_SAR_Seq.c **** 
 291:.\Generated_Source\PSoC4/ADC_SAR_Seq.c ****         if((ADC_SAR_Seq_channelsConfig[chNum] & ADC_SAR_Seq_DIFFERENTIAL_EN) == 0u)
 243              		.loc 1 291 0
 244 011e CB05     		lsl	r3, r1, #23
 245 0120 04D4     		bmi	.L9
 292:.\Generated_Source\PSoC4/ADC_SAR_Seq.c ****         {
 293:.\Generated_Source\PSoC4/ADC_SAR_Seq.c ****             #if((ADC_SAR_Seq_DEFAULT_SE_RESULT_FORMAT_SEL == ADC_SAR_Seq__FSIGNED) && \
 294:.\Generated_Source\PSoC4/ADC_SAR_Seq.c ****                 (ADC_SAR_Seq_DEFAULT_NEG_INPUT_SEL == ADC_SAR_Seq__VREF))
 295:.\Generated_Source\PSoC4/ADC_SAR_Seq.c ****                 /* Set offset to the minus half scale to convert results to unsigned format */
 296:.\Generated_Source\PSoC4/ADC_SAR_Seq.c ****                 ADC_SAR_Seq_offset[chNum] = (int16)(counts / -2);
 297:.\Generated_Source\PSoC4/ADC_SAR_Seq.c ****             #else
 298:.\Generated_Source\PSoC4/ADC_SAR_Seq.c ****                 ADC_SAR_Seq_offset[chNum] = 0;
 246              		.loc 1 298 0
 247 0122 5300     		lsl	r3, r2, #1
 248 0124 0024     		mov	r4, #0
 249 0126 2549     		ldr	r1, .L14+100
 250 0128 5C52     		strh	r4, [r3, r1]
 251 012a 03E0     		b	.L10
 252              	.L9:
 299:.\Generated_Source\PSoC4/ADC_SAR_Seq.c ****             #endif /* end DEFAULT_SE_RESULT_FORMAT_SEL == ADC_SAR_Seq__FSIGNED */
 300:.\Generated_Source\PSoC4/ADC_SAR_Seq.c ****         }
 301:.\Generated_Source\PSoC4/ADC_SAR_Seq.c ****         else    /* Differential channel */
 302:.\Generated_Source\PSoC4/ADC_SAR_Seq.c ****         {
 303:.\Generated_Source\PSoC4/ADC_SAR_Seq.c ****             #if(ADC_SAR_Seq_DEFAULT_DIFF_RESULT_FORMAT_SEL == ADC_SAR_Seq__FUNSIGNED)
 304:.\Generated_Source\PSoC4/ADC_SAR_Seq.c ****                 /* Set offset to the half scale to convert results to signed format */
 305:.\Generated_Source\PSoC4/ADC_SAR_Seq.c ****                 ADC_SAR_Seq_offset[chNum] = (int16)(counts / 2);
 306:.\Generated_Source\PSoC4/ADC_SAR_Seq.c ****             #else
 307:.\Generated_Source\PSoC4/ADC_SAR_Seq.c ****                 ADC_SAR_Seq_offset[chNum] = 0;
 253              		.loc 1 307 0
 254 012c 5300     		lsl	r3, r2, #1
 255 012e 0024     		mov	r4, #0
 256 0130 2249     		ldr	r1, .L14+100
 257 0132 5C52     		strh	r4, [r3, r1]
 258              	.L10:
 308:.\Generated_Source\PSoC4/ADC_SAR_Seq.c ****             #endif /* end ADC_SAR_Seq_DEFAULT_DIFF_RESULT_FORMAT_SEL == ADC_SAR_Seq__FUNSIGNED */
 309:.\Generated_Source\PSoC4/ADC_SAR_Seq.c ****         }
 310:.\Generated_Source\PSoC4/ADC_SAR_Seq.c ****         /* Calculate gain in counts per 10 volts with rounding */
ARM GAS  C:\Users\ELISHA~1\AppData\Local\Temp\ccPvIcbh.s 			page 11


 311:.\Generated_Source\PSoC4/ADC_SAR_Seq.c ****         ADC_SAR_Seq_countsPer10Volt[chNum] = (int16)(((counts * ADC_SAR_Seq_10MV_COUNTS) +
 259              		.loc 1 311 0 discriminator 2
 260 0134 224B     		ldr	r3, .L14+104
 261 0136 4343     		mul	r3, r0
 262 0138 8021     		mov	r1, #128
 263 013a C900     		lsl	r1, r1, #3
 264 013c 8C46     		mov	ip, r1
 265 013e 6344     		add	r3, r3, ip
 312:.\Generated_Source\PSoC4/ADC_SAR_Seq.c ****                             ADC_SAR_Seq_DEFAULT_VREF_MV_VALUE) / (ADC_SAR_Seq_DEFAULT_VREF_MV_VALUE
 266              		.loc 1 312 0 discriminator 2
 267 0140 D917     		asr	r1, r3, #31
 268 0142 490D     		lsr	r1, r1, #21
 269 0144 CB18     		add	r3, r1, r3
 270 0146 DB12     		asr	r3, r3, #11
 311:.\Generated_Source\PSoC4/ADC_SAR_Seq.c ****                             ADC_SAR_Seq_DEFAULT_VREF_MV_VALUE) / (ADC_SAR_Seq_DEFAULT_VREF_MV_VALUE
 271              		.loc 1 311 0 discriminator 2
 272 0148 1BB2     		sxth	r3, r3
 273 014a 9000     		lsl	r0, r2, #2
 274              	.LVL24:
 275 014c 1D49     		ldr	r1, .L14+108
 276 014e 4350     		str	r3, [r0, r1]
 232:.\Generated_Source\PSoC4/ADC_SAR_Seq.c ****     {
 277              		.loc 1 232 0 discriminator 2
 278 0150 0132     		add	r2, r2, #1
 279              	.LVL25:
 280              	.L3:
 232:.\Generated_Source\PSoC4/ADC_SAR_Seq.c ****     {
 281              		.loc 1 232 0 is_stmt 0 discriminator 1
 282 0152 012A     		cmp	r2, #1
 283 0154 98D9     		bls	.L11
 313:.\Generated_Source\PSoC4/ADC_SAR_Seq.c ****     }
 314:.\Generated_Source\PSoC4/ADC_SAR_Seq.c **** }
 284              		.loc 1 314 0 is_stmt 1
 285              		@ sp needed
 286 0156 10BD     		pop	{r4, pc}
 287              	.L15:
 288              		.align	2
 289              	.L14:
 290 0158 00000000 		.word	ADC_SAR_Seq_ISR
 291 015c 20001A40 		.word	1075445792
 292 0160 80031A40 		.word	1075446656
 293 0164 40201013 		.word	319823936
 294 0168 40200013 		.word	318775360
 295 016c 00001A40 		.word	1075445760
 296 0170 FC000080 		.word	-2147483396
 297 0174 04001A40 		.word	1075445764
 298 0178 0000FF0F 		.word	268369920
 299 017c 18001A40 		.word	1075445784
 300 0180 1C001A40 		.word	1075445788
 301 0184 04000400 		.word	262148
 302 0188 10001A40 		.word	1075445776
 303 018c 14001A40 		.word	1075445780
 304 0190 00031A40 		.word	1075446528
 305 0194 40031A40 		.word	1075446592
 306 0198 28021A40 		.word	1075446312
 307 019c 38021A40 		.word	1075446328
 308 01a0 18021A40 		.word	1075446296
ARM GAS  C:\Users\ELISHA~1\AppData\Local\Temp\ccPvIcbh.s 			page 12


 309 01a4 000F1A40 		.word	1075449600
 310 01a8 30001A40 		.word	1075445808
 311 01ac FFFFFFDF 		.word	-536870913
 312 01b0 00000000 		.word	.LANCHOR0
 313 01b4 80001A40 		.word	1075445888
 314 01b8 80021A40 		.word	1075446400
 315 01bc 00000000 		.word	ADC_SAR_Seq_offset
 316 01c0 10270000 		.word	10000
 317 01c4 00000000 		.word	ADC_SAR_Seq_countsPer10Volt
 318              		.cfi_endproc
 319              	.LFE1:
 320              		.size	ADC_SAR_Seq_Init, .-ADC_SAR_Seq_Init
 321              		.section	.text.ADC_SAR_Seq_Enable,"ax",%progbits
 322              		.align	2
 323              		.global	ADC_SAR_Seq_Enable
 324              		.code	16
 325              		.thumb_func
 326              		.type	ADC_SAR_Seq_Enable, %function
 327              	ADC_SAR_Seq_Enable:
 328              	.LFB2:
 315:.\Generated_Source\PSoC4/ADC_SAR_Seq.c **** 
 316:.\Generated_Source\PSoC4/ADC_SAR_Seq.c **** /*******************************************************************************
 317:.\Generated_Source\PSoC4/ADC_SAR_Seq.c **** * Function Name: ADC_SAR_1_Enable
 318:.\Generated_Source\PSoC4/ADC_SAR_Seq.c **** ********************************************************************************
 319:.\Generated_Source\PSoC4/ADC_SAR_Seq.c **** *
 320:.\Generated_Source\PSoC4/ADC_SAR_Seq.c **** * Summary:
 321:.\Generated_Source\PSoC4/ADC_SAR_Seq.c **** *  Enables the clock and analog power for SAR ADC.
 322:.\Generated_Source\PSoC4/ADC_SAR_Seq.c **** *
 323:.\Generated_Source\PSoC4/ADC_SAR_Seq.c **** * Parameters:
 324:.\Generated_Source\PSoC4/ADC_SAR_Seq.c **** *  None.
 325:.\Generated_Source\PSoC4/ADC_SAR_Seq.c **** *
 326:.\Generated_Source\PSoC4/ADC_SAR_Seq.c **** * Return:
 327:.\Generated_Source\PSoC4/ADC_SAR_Seq.c **** *  None.
 328:.\Generated_Source\PSoC4/ADC_SAR_Seq.c **** *
 329:.\Generated_Source\PSoC4/ADC_SAR_Seq.c **** *******************************************************************************/
 330:.\Generated_Source\PSoC4/ADC_SAR_Seq.c **** void ADC_SAR_Seq_Enable(void)
 331:.\Generated_Source\PSoC4/ADC_SAR_Seq.c **** {
 329              		.loc 1 331 0
 330              		.cfi_startproc
 331 0000 08B5     		push	{r3, lr}
 332              		.cfi_def_cfa_offset 8
 333              		.cfi_offset 3, -8
 334              		.cfi_offset 14, -4
 332:.\Generated_Source\PSoC4/ADC_SAR_Seq.c ****     if (0u == (ADC_SAR_Seq_SAR_CTRL_REG & ADC_SAR_Seq_ENABLE))
 335              		.loc 1 332 0
 336 0002 074B     		ldr	r3, .L18
 337 0004 1B68     		ldr	r3, [r3]
 338 0006 002B     		cmp	r3, #0
 339 0008 08DB     		blt	.L16
 333:.\Generated_Source\PSoC4/ADC_SAR_Seq.c ****     {
 334:.\Generated_Source\PSoC4/ADC_SAR_Seq.c ****         #if(ADC_SAR_Seq_CY_SAR_IP_VER != ADC_SAR_Seq_CY_SAR_IP_VER0)
 335:.\Generated_Source\PSoC4/ADC_SAR_Seq.c **** 
 336:.\Generated_Source\PSoC4/ADC_SAR_Seq.c ****             while (0u != (ADC_SAR_Seq_SAR_STATUS_REG & ADC_SAR_Seq_STATUS_BUSY))
 337:.\Generated_Source\PSoC4/ADC_SAR_Seq.c ****             {
 338:.\Generated_Source\PSoC4/ADC_SAR_Seq.c ****                 /* wait for SAR to go idle to avoid deadlock */
 339:.\Generated_Source\PSoC4/ADC_SAR_Seq.c ****             }
 340:.\Generated_Source\PSoC4/ADC_SAR_Seq.c ****         #endif /* (ADC_SAR_Seq_CY_SAR_IP_VER != ADC_SAR_Seq_CY_SAR_IP_VER0) */
ARM GAS  C:\Users\ELISHA~1\AppData\Local\Temp\ccPvIcbh.s 			page 13


 341:.\Generated_Source\PSoC4/ADC_SAR_Seq.c ****         
 342:.\Generated_Source\PSoC4/ADC_SAR_Seq.c ****         ADC_SAR_Seq_SAR_CTRL_REG |= ADC_SAR_Seq_ENABLE;
 340              		.loc 1 342 0
 341 000a 054A     		ldr	r2, .L18
 342 000c 1368     		ldr	r3, [r2]
 343 000e 8021     		mov	r1, #128
 344 0010 0906     		lsl	r1, r1, #24
 345 0012 0B43     		orr	r3, r1
 346 0014 1360     		str	r3, [r2]
 343:.\Generated_Source\PSoC4/ADC_SAR_Seq.c ****         
 344:.\Generated_Source\PSoC4/ADC_SAR_Seq.c ****         /* The block is ready to use 10 us after the enable signal is set high. */
 345:.\Generated_Source\PSoC4/ADC_SAR_Seq.c ****         CyDelayUs(ADC_SAR_Seq_10US_DELAY);         
 347              		.loc 1 345 0
 348 0016 0A20     		mov	r0, #10
 349 0018 FFF7FEFF 		bl	CyDelayUs
 350              	.LVL26:
 351              	.L16:
 346:.\Generated_Source\PSoC4/ADC_SAR_Seq.c ****     }
 347:.\Generated_Source\PSoC4/ADC_SAR_Seq.c **** }
 352              		.loc 1 347 0
 353              		@ sp needed
 354 001c 08BD     		pop	{r3, pc}
 355              	.L19:
 356 001e C046     		.align	2
 357              	.L18:
 358 0020 00001A40 		.word	1075445760
 359              		.cfi_endproc
 360              	.LFE2:
 361              		.size	ADC_SAR_Seq_Enable, .-ADC_SAR_Seq_Enable
 362              		.section	.text.ADC_SAR_Seq_Start,"ax",%progbits
 363              		.align	2
 364              		.global	ADC_SAR_Seq_Start
 365              		.code	16
 366              		.thumb_func
 367              		.type	ADC_SAR_Seq_Start, %function
 368              	ADC_SAR_Seq_Start:
 369              	.LFB0:
  64:.\Generated_Source\PSoC4/ADC_SAR_Seq.c ****     /* If not Initialized then initialize all required hardware and software */
 370              		.loc 1 64 0
 371              		.cfi_startproc
 372 0000 08B5     		push	{r3, lr}
 373              		.cfi_def_cfa_offset 8
 374              		.cfi_offset 3, -8
 375              		.cfi_offset 14, -4
  66:.\Generated_Source\PSoC4/ADC_SAR_Seq.c ****     {
 376              		.loc 1 66 0
 377 0002 064B     		ldr	r3, .L22
 378 0004 1B78     		ldrb	r3, [r3]
 379 0006 002B     		cmp	r3, #0
 380 0008 04D1     		bne	.L21
  68:.\Generated_Source\PSoC4/ADC_SAR_Seq.c ****         ADC_SAR_Seq_initVar = 1u;
 381              		.loc 1 68 0
 382 000a FFF7FEFF 		bl	ADC_SAR_Seq_Init
 383              	.LVL27:
  69:.\Generated_Source\PSoC4/ADC_SAR_Seq.c ****     }
 384              		.loc 1 69 0
 385 000e 0122     		mov	r2, #1
ARM GAS  C:\Users\ELISHA~1\AppData\Local\Temp\ccPvIcbh.s 			page 14


 386 0010 024B     		ldr	r3, .L22
 387 0012 1A70     		strb	r2, [r3]
 388              	.L21:
  71:.\Generated_Source\PSoC4/ADC_SAR_Seq.c **** }
 389              		.loc 1 71 0
 390 0014 FFF7FEFF 		bl	ADC_SAR_Seq_Enable
 391              	.LVL28:
  72:.\Generated_Source\PSoC4/ADC_SAR_Seq.c **** 
 392              		.loc 1 72 0
 393              		@ sp needed
 394 0018 08BD     		pop	{r3, pc}
 395              	.L23:
 396 001a C046     		.align	2
 397              	.L22:
 398 001c 00000000 		.word	.LANCHOR1
 399              		.cfi_endproc
 400              	.LFE0:
 401              		.size	ADC_SAR_Seq_Start, .-ADC_SAR_Seq_Start
 402              		.section	.text.ADC_SAR_Seq_Stop,"ax",%progbits
 403              		.align	2
 404              		.global	ADC_SAR_Seq_Stop
 405              		.code	16
 406              		.thumb_func
 407              		.type	ADC_SAR_Seq_Stop, %function
 408              	ADC_SAR_Seq_Stop:
 409              	.LFB3:
 348:.\Generated_Source\PSoC4/ADC_SAR_Seq.c **** 
 349:.\Generated_Source\PSoC4/ADC_SAR_Seq.c **** 
 350:.\Generated_Source\PSoC4/ADC_SAR_Seq.c **** /*******************************************************************************
 351:.\Generated_Source\PSoC4/ADC_SAR_Seq.c **** * Function Name: ADC_SAR_Seq_Stop
 352:.\Generated_Source\PSoC4/ADC_SAR_Seq.c **** ********************************************************************************
 353:.\Generated_Source\PSoC4/ADC_SAR_Seq.c **** *
 354:.\Generated_Source\PSoC4/ADC_SAR_Seq.c **** * Summary:
 355:.\Generated_Source\PSoC4/ADC_SAR_Seq.c **** *  This function stops ADC conversions and puts the ADC into its lowest power
 356:.\Generated_Source\PSoC4/ADC_SAR_Seq.c **** *  mode.
 357:.\Generated_Source\PSoC4/ADC_SAR_Seq.c **** *
 358:.\Generated_Source\PSoC4/ADC_SAR_Seq.c **** * Parameters:
 359:.\Generated_Source\PSoC4/ADC_SAR_Seq.c **** *  None.
 360:.\Generated_Source\PSoC4/ADC_SAR_Seq.c **** *
 361:.\Generated_Source\PSoC4/ADC_SAR_Seq.c **** * Return:
 362:.\Generated_Source\PSoC4/ADC_SAR_Seq.c **** *  None.
 363:.\Generated_Source\PSoC4/ADC_SAR_Seq.c **** *
 364:.\Generated_Source\PSoC4/ADC_SAR_Seq.c **** *******************************************************************************/
 365:.\Generated_Source\PSoC4/ADC_SAR_Seq.c **** void ADC_SAR_Seq_Stop(void)
 366:.\Generated_Source\PSoC4/ADC_SAR_Seq.c **** {
 410              		.loc 1 366 0
 411              		.cfi_startproc
 367:.\Generated_Source\PSoC4/ADC_SAR_Seq.c ****     ADC_SAR_Seq_SAR_CTRL_REG &= (uint32)~ADC_SAR_Seq_ENABLE;
 412              		.loc 1 367 0
 413 0000 024A     		ldr	r2, .L25
 414 0002 1368     		ldr	r3, [r2]
 415 0004 5B00     		lsl	r3, r3, #1
 416 0006 5B08     		lsr	r3, r3, #1
 417 0008 1360     		str	r3, [r2]
 368:.\Generated_Source\PSoC4/ADC_SAR_Seq.c **** }
 418              		.loc 1 368 0
 419              		@ sp needed
ARM GAS  C:\Users\ELISHA~1\AppData\Local\Temp\ccPvIcbh.s 			page 15


 420 000a 7047     		bx	lr
 421              	.L26:
 422              		.align	2
 423              	.L25:
 424 000c 00001A40 		.word	1075445760
 425              		.cfi_endproc
 426              	.LFE3:
 427              		.size	ADC_SAR_Seq_Stop, .-ADC_SAR_Seq_Stop
 428              		.section	.text.ADC_SAR_Seq_StartConvert,"ax",%progbits
 429              		.align	2
 430              		.global	ADC_SAR_Seq_StartConvert
 431              		.code	16
 432              		.thumb_func
 433              		.type	ADC_SAR_Seq_StartConvert, %function
 434              	ADC_SAR_Seq_StartConvert:
 435              	.LFB4:
 369:.\Generated_Source\PSoC4/ADC_SAR_Seq.c **** 
 370:.\Generated_Source\PSoC4/ADC_SAR_Seq.c **** 
 371:.\Generated_Source\PSoC4/ADC_SAR_Seq.c **** /*******************************************************************************
 372:.\Generated_Source\PSoC4/ADC_SAR_Seq.c **** * Function Name: ADC_SAR_Seq_StartConvert
 373:.\Generated_Source\PSoC4/ADC_SAR_Seq.c **** ********************************************************************************
 374:.\Generated_Source\PSoC4/ADC_SAR_Seq.c **** *
 375:.\Generated_Source\PSoC4/ADC_SAR_Seq.c **** * Summary:
 376:.\Generated_Source\PSoC4/ADC_SAR_Seq.c **** *  Description:
 377:.\Generated_Source\PSoC4/ADC_SAR_Seq.c **** *  For free running mode, this API starts the conversion process and it
 378:.\Generated_Source\PSoC4/ADC_SAR_Seq.c **** *  runs continuously.
 379:.\Generated_Source\PSoC4/ADC_SAR_Seq.c **** *
 380:.\Generated_Source\PSoC4/ADC_SAR_Seq.c **** *  In a triggered mode, this routine triggers every conversion by
 381:.\Generated_Source\PSoC4/ADC_SAR_Seq.c **** *  writing into the FW_TRIGGER bit in SAR_START_CTRL reg. In triggered mode,
 382:.\Generated_Source\PSoC4/ADC_SAR_Seq.c **** *  every conversion has to start by this API.
 383:.\Generated_Source\PSoC4/ADC_SAR_Seq.c **** *
 384:.\Generated_Source\PSoC4/ADC_SAR_Seq.c **** * Parameters:
 385:.\Generated_Source\PSoC4/ADC_SAR_Seq.c **** *  None.
 386:.\Generated_Source\PSoC4/ADC_SAR_Seq.c **** *
 387:.\Generated_Source\PSoC4/ADC_SAR_Seq.c **** * Return:
 388:.\Generated_Source\PSoC4/ADC_SAR_Seq.c **** *  None.
 389:.\Generated_Source\PSoC4/ADC_SAR_Seq.c **** *
 390:.\Generated_Source\PSoC4/ADC_SAR_Seq.c **** *******************************************************************************/
 391:.\Generated_Source\PSoC4/ADC_SAR_Seq.c **** void ADC_SAR_Seq_StartConvert(void)
 392:.\Generated_Source\PSoC4/ADC_SAR_Seq.c **** {
 436              		.loc 1 392 0
 437              		.cfi_startproc
 393:.\Generated_Source\PSoC4/ADC_SAR_Seq.c ****     #if(ADC_SAR_Seq_DEFAULT_SAMPLE_MODE_SEL == ADC_SAR_Seq__FREERUNNING)
 394:.\Generated_Source\PSoC4/ADC_SAR_Seq.c ****         ADC_SAR_Seq_SAR_SAMPLE_CTRL_REG |= ADC_SAR_Seq_CONTINUOUS_EN;
 438              		.loc 1 394 0
 439 0000 034A     		ldr	r2, .L28
 440 0002 1368     		ldr	r3, [r2]
 441 0004 8021     		mov	r1, #128
 442 0006 4902     		lsl	r1, r1, #9
 443 0008 0B43     		orr	r3, r1
 444 000a 1360     		str	r3, [r2]
 395:.\Generated_Source\PSoC4/ADC_SAR_Seq.c ****     #else /* Firmware trigger */
 396:.\Generated_Source\PSoC4/ADC_SAR_Seq.c ****         ADC_SAR_Seq_SAR_START_CTRL_REG = ADC_SAR_Seq_FW_TRIGGER;
 397:.\Generated_Source\PSoC4/ADC_SAR_Seq.c ****     #endif /* End ADC_SAR_Seq_DEFAULT_SAMPLE_MODE == ADC_SAR_Seq__FREERUNNING */
 398:.\Generated_Source\PSoC4/ADC_SAR_Seq.c **** 
 399:.\Generated_Source\PSoC4/ADC_SAR_Seq.c **** }
 445              		.loc 1 399 0
ARM GAS  C:\Users\ELISHA~1\AppData\Local\Temp\ccPvIcbh.s 			page 16


 446              		@ sp needed
 447 000c 7047     		bx	lr
 448              	.L29:
 449 000e C046     		.align	2
 450              	.L28:
 451 0010 04001A40 		.word	1075445764
 452              		.cfi_endproc
 453              	.LFE4:
 454              		.size	ADC_SAR_Seq_StartConvert, .-ADC_SAR_Seq_StartConvert
 455              		.section	.text.ADC_SAR_Seq_StopConvert,"ax",%progbits
 456              		.align	2
 457              		.global	ADC_SAR_Seq_StopConvert
 458              		.code	16
 459              		.thumb_func
 460              		.type	ADC_SAR_Seq_StopConvert, %function
 461              	ADC_SAR_Seq_StopConvert:
 462              	.LFB5:
 400:.\Generated_Source\PSoC4/ADC_SAR_Seq.c **** 
 401:.\Generated_Source\PSoC4/ADC_SAR_Seq.c **** 
 402:.\Generated_Source\PSoC4/ADC_SAR_Seq.c **** /*******************************************************************************
 403:.\Generated_Source\PSoC4/ADC_SAR_Seq.c **** * Function Name: ADC_SAR_Seq_StopConvert
 404:.\Generated_Source\PSoC4/ADC_SAR_Seq.c **** ********************************************************************************
 405:.\Generated_Source\PSoC4/ADC_SAR_Seq.c **** *
 406:.\Generated_Source\PSoC4/ADC_SAR_Seq.c **** * Summary:
 407:.\Generated_Source\PSoC4/ADC_SAR_Seq.c **** *  Forces the ADC to stop all conversions.
 408:.\Generated_Source\PSoC4/ADC_SAR_Seq.c **** *
 409:.\Generated_Source\PSoC4/ADC_SAR_Seq.c **** * Parameters:
 410:.\Generated_Source\PSoC4/ADC_SAR_Seq.c **** *  None.
 411:.\Generated_Source\PSoC4/ADC_SAR_Seq.c **** *
 412:.\Generated_Source\PSoC4/ADC_SAR_Seq.c **** * Return:
 413:.\Generated_Source\PSoC4/ADC_SAR_Seq.c **** *  None.
 414:.\Generated_Source\PSoC4/ADC_SAR_Seq.c **** *
 415:.\Generated_Source\PSoC4/ADC_SAR_Seq.c **** *******************************************************************************/
 416:.\Generated_Source\PSoC4/ADC_SAR_Seq.c **** void ADC_SAR_Seq_StopConvert(void)
 417:.\Generated_Source\PSoC4/ADC_SAR_Seq.c **** {
 463              		.loc 1 417 0
 464              		.cfi_startproc
 418:.\Generated_Source\PSoC4/ADC_SAR_Seq.c ****     #if(ADC_SAR_Seq_DEFAULT_SAMPLE_MODE_SEL == ADC_SAR_Seq__FREERUNNING)
 419:.\Generated_Source\PSoC4/ADC_SAR_Seq.c ****         ADC_SAR_Seq_SAR_SAMPLE_CTRL_REG &= (uint32)(~ADC_SAR_Seq_CONTINUOUS_EN);
 465              		.loc 1 419 0
 466 0000 024A     		ldr	r2, .L31
 467 0002 1168     		ldr	r1, [r2]
 468 0004 024B     		ldr	r3, .L31+4
 469 0006 0B40     		and	r3, r1
 470 0008 1360     		str	r3, [r2]
 420:.\Generated_Source\PSoC4/ADC_SAR_Seq.c ****     #endif /* ADC_SAR_Seq_DEFAULT_SAMPLE_MODE == ADC_SAR_Seq__FREERUNNING */
 421:.\Generated_Source\PSoC4/ADC_SAR_Seq.c **** }
 471              		.loc 1 421 0
 472              		@ sp needed
 473 000a 7047     		bx	lr
 474              	.L32:
 475              		.align	2
 476              	.L31:
 477 000c 04001A40 		.word	1075445764
 478 0010 FFFFFEFF 		.word	-65537
 479              		.cfi_endproc
 480              	.LFE5:
ARM GAS  C:\Users\ELISHA~1\AppData\Local\Temp\ccPvIcbh.s 			page 17


 481              		.size	ADC_SAR_Seq_StopConvert, .-ADC_SAR_Seq_StopConvert
 482              		.section	.text.ADC_SAR_Seq_IsEndConversion,"ax",%progbits
 483              		.align	2
 484              		.global	ADC_SAR_Seq_IsEndConversion
 485              		.code	16
 486              		.thumb_func
 487              		.type	ADC_SAR_Seq_IsEndConversion, %function
 488              	ADC_SAR_Seq_IsEndConversion:
 489              	.LFB6:
 422:.\Generated_Source\PSoC4/ADC_SAR_Seq.c **** 
 423:.\Generated_Source\PSoC4/ADC_SAR_Seq.c **** 
 424:.\Generated_Source\PSoC4/ADC_SAR_Seq.c **** /*******************************************************************************
 425:.\Generated_Source\PSoC4/ADC_SAR_Seq.c **** * Function Name: ADC_SAR_Seq_IsEndConversion
 426:.\Generated_Source\PSoC4/ADC_SAR_Seq.c **** ********************************************************************************
 427:.\Generated_Source\PSoC4/ADC_SAR_Seq.c **** *
 428:.\Generated_Source\PSoC4/ADC_SAR_Seq.c **** * Summary:
 429:.\Generated_Source\PSoC4/ADC_SAR_Seq.c **** *  Description: Checks for ADC end of conversion for the case one
 430:.\Generated_Source\PSoC4/ADC_SAR_Seq.c **** *  channel and end of scan for the case of multiple channels. It acts
 431:.\Generated_Source\PSoC4/ADC_SAR_Seq.c **** *  as a software version of the EOC. This function provides the
 432:.\Generated_Source\PSoC4/ADC_SAR_Seq.c **** *  programmer with two options. In one mode this function
 433:.\Generated_Source\PSoC4/ADC_SAR_Seq.c **** *  immediately returns with the conversion status. In the other mode,
 434:.\Generated_Source\PSoC4/ADC_SAR_Seq.c **** *  the function does not return (blocking) until the conversion has
 435:.\Generated_Source\PSoC4/ADC_SAR_Seq.c **** *  completed.
 436:.\Generated_Source\PSoC4/ADC_SAR_Seq.c **** *
 437:.\Generated_Source\PSoC4/ADC_SAR_Seq.c **** * Parameters:
 438:.\Generated_Source\PSoC4/ADC_SAR_Seq.c **** *  ADC_RETURN_STATUS        -> Immediately returns conversion result status
 439:.\Generated_Source\PSoC4/ADC_SAR_Seq.c **** *  ADC_WAIT_FOR_RESULT      -> Does not return until ADC complete
 440:.\Generated_Source\PSoC4/ADC_SAR_Seq.c **** *  ADC_RETURN_STATUS_INJ    -> Immediately returns conversion result status
 441:.\Generated_Source\PSoC4/ADC_SAR_Seq.c **** *                              for injection channel
 442:.\Generated_Source\PSoC4/ADC_SAR_Seq.c **** *  ADC_WAIT_FOR_RESULT_INJ  -> Does not return until ADC completes injection
 443:.\Generated_Source\PSoC4/ADC_SAR_Seq.c **** *                              channel conversion
 444:.\Generated_Source\PSoC4/ADC_SAR_Seq.c **** *
 445:.\Generated_Source\PSoC4/ADC_SAR_Seq.c **** * Return:
 446:.\Generated_Source\PSoC4/ADC_SAR_Seq.c **** *  If a non-zero value is returned, the last conversion or scan has completed.
 447:.\Generated_Source\PSoC4/ADC_SAR_Seq.c **** *  If the returned value is zero, the ADC is still in the process of a scan.
 448:.\Generated_Source\PSoC4/ADC_SAR_Seq.c **** *
 449:.\Generated_Source\PSoC4/ADC_SAR_Seq.c **** *******************************************************************************/
 450:.\Generated_Source\PSoC4/ADC_SAR_Seq.c **** uint32 ADC_SAR_Seq_IsEndConversion(uint32 retMode)
 451:.\Generated_Source\PSoC4/ADC_SAR_Seq.c **** {
 490              		.loc 1 451 0
 491              		.cfi_startproc
 492              	.LVL29:
 493 0000 011C     		mov	r1, r0
 494              	.LVL30:
 452:.\Generated_Source\PSoC4/ADC_SAR_Seq.c ****     uint32 status = 0u;
 453:.\Generated_Source\PSoC4/ADC_SAR_Seq.c **** 
 454:.\Generated_Source\PSoC4/ADC_SAR_Seq.c ****     if((retMode & (ADC_SAR_Seq_RETURN_STATUS | ADC_SAR_Seq_WAIT_FOR_RESULT)) != 0u)
 495              		.loc 1 454 0
 496 0002 8307     		lsl	r3, r0, #30
 497 0004 0CD0     		beq	.L40
 498              	.LVL31:
 499              	.L36:
 455:.\Generated_Source\PSoC4/ADC_SAR_Seq.c ****     {
 456:.\Generated_Source\PSoC4/ADC_SAR_Seq.c ****         do
 457:.\Generated_Source\PSoC4/ADC_SAR_Seq.c ****         {
 458:.\Generated_Source\PSoC4/ADC_SAR_Seq.c ****             status = ADC_SAR_Seq_SAR_INTR_REG & ADC_SAR_Seq_EOS_MASK;
 500              		.loc 1 458 0 discriminator 2
ARM GAS  C:\Users\ELISHA~1\AppData\Local\Temp\ccPvIcbh.s 			page 18


 501 0006 104B     		ldr	r3, .L41
 502 0008 1B68     		ldr	r3, [r3]
 503 000a 0120     		mov	r0, #1
 504 000c 1840     		and	r0, r3
 505              	.LVL32:
 459:.\Generated_Source\PSoC4/ADC_SAR_Seq.c ****         }while((status == 0u) && ((retMode & ADC_SAR_Seq_WAIT_FOR_RESULT) != 0u));
 506              		.loc 1 459 0 discriminator 2
 507 000e 01D1     		bne	.L35
 508              		.loc 1 459 0 is_stmt 0 discriminator 1
 509 0010 8B07     		lsl	r3, r1, #30
 510 0012 F8D4     		bmi	.L36
 511              	.L35:
 460:.\Generated_Source\PSoC4/ADC_SAR_Seq.c **** 
 461:.\Generated_Source\PSoC4/ADC_SAR_Seq.c ****         if(status != 0u)
 512              		.loc 1 461 0 is_stmt 1
 513 0014 0028     		cmp	r0, #0
 514 0016 04D0     		beq	.L34
 462:.\Generated_Source\PSoC4/ADC_SAR_Seq.c ****         {
 463:.\Generated_Source\PSoC4/ADC_SAR_Seq.c ****             /* Clear EOS bit */
 464:.\Generated_Source\PSoC4/ADC_SAR_Seq.c ****             ADC_SAR_Seq_SAR_INTR_REG = ADC_SAR_Seq_EOS_MASK;
 515              		.loc 1 464 0
 516 0018 0122     		mov	r2, #1
 517 001a 0B4B     		ldr	r3, .L41
 518 001c 1A60     		str	r2, [r3]
 519 001e 00E0     		b	.L34
 520              	.LVL33:
 521              	.L40:
 452:.\Generated_Source\PSoC4/ADC_SAR_Seq.c **** 
 522              		.loc 1 452 0
 523 0020 0020     		mov	r0, #0
 524              	.LVL34:
 525              	.L34:
 465:.\Generated_Source\PSoC4/ADC_SAR_Seq.c ****         }
 466:.\Generated_Source\PSoC4/ADC_SAR_Seq.c ****     }
 467:.\Generated_Source\PSoC4/ADC_SAR_Seq.c **** 
 468:.\Generated_Source\PSoC4/ADC_SAR_Seq.c ****     #if(ADC_SAR_Seq_INJ_CHANNEL_ENABLED)
 469:.\Generated_Source\PSoC4/ADC_SAR_Seq.c ****         if((retMode & (ADC_SAR_Seq_RETURN_STATUS_INJ | ADC_SAR_Seq_WAIT_FOR_RESULT_INJ)) != 0u)
 526              		.loc 1 469 0
 527 0022 0C23     		mov	r3, #12
 528 0024 0B42     		tst	r3, r1
 529 0026 0DD0     		beq	.L37
 530              	.L39:
 470:.\Generated_Source\PSoC4/ADC_SAR_Seq.c ****         {
 471:.\Generated_Source\PSoC4/ADC_SAR_Seq.c ****             do
 472:.\Generated_Source\PSoC4/ADC_SAR_Seq.c ****             {
 473:.\Generated_Source\PSoC4/ADC_SAR_Seq.c ****                 status |= ADC_SAR_Seq_SAR_INTR_REG & ADC_SAR_Seq_INJ_EOC_MASK;
 531              		.loc 1 473 0
 532 0028 074B     		ldr	r3, .L41
 533 002a 1A68     		ldr	r2, [r3]
 534 002c 1023     		mov	r3, #16
 535 002e 1A40     		and	r2, r3
 536 0030 1043     		orr	r0, r2
 537              	.LVL35:
 474:.\Generated_Source\PSoC4/ADC_SAR_Seq.c ****             }while(((status & ADC_SAR_Seq_INJ_EOC_MASK) == 0u) &&
 538              		.loc 1 474 0
 539 0032 0340     		and	r3, r0
 475:.\Generated_Source\PSoC4/ADC_SAR_Seq.c ****                    ((retMode & ADC_SAR_Seq_WAIT_FOR_RESULT_INJ) != 0u));
ARM GAS  C:\Users\ELISHA~1\AppData\Local\Temp\ccPvIcbh.s 			page 19


 540              		.loc 1 475 0
 541 0034 01D1     		bne	.L38
 474:.\Generated_Source\PSoC4/ADC_SAR_Seq.c ****             }while(((status & ADC_SAR_Seq_INJ_EOC_MASK) == 0u) &&
 542              		.loc 1 474 0 discriminator 1
 543 0036 0A07     		lsl	r2, r1, #28
 544 0038 F6D4     		bmi	.L39
 545              	.L38:
 476:.\Generated_Source\PSoC4/ADC_SAR_Seq.c **** 
 477:.\Generated_Source\PSoC4/ADC_SAR_Seq.c ****             if((status & ADC_SAR_Seq_INJ_EOC_MASK) != 0u)
 546              		.loc 1 477 0
 547 003a 002B     		cmp	r3, #0
 548 003c 02D0     		beq	.L37
 478:.\Generated_Source\PSoC4/ADC_SAR_Seq.c ****             {
 479:.\Generated_Source\PSoC4/ADC_SAR_Seq.c ****                 /* Clear Injection EOS bit */
 480:.\Generated_Source\PSoC4/ADC_SAR_Seq.c ****                 ADC_SAR_Seq_SAR_INTR_REG = ADC_SAR_Seq_INJ_EOC_MASK;
 549              		.loc 1 480 0
 550 003e 1022     		mov	r2, #16
 551 0040 014B     		ldr	r3, .L41
 552 0042 1A60     		str	r2, [r3]
 553              	.L37:
 481:.\Generated_Source\PSoC4/ADC_SAR_Seq.c ****             }
 482:.\Generated_Source\PSoC4/ADC_SAR_Seq.c ****         }
 483:.\Generated_Source\PSoC4/ADC_SAR_Seq.c ****     #endif /* ADC_SAR_Seq_INJ_CHANNEL_ENABLED */
 484:.\Generated_Source\PSoC4/ADC_SAR_Seq.c **** 
 485:.\Generated_Source\PSoC4/ADC_SAR_Seq.c ****     return (status);
 486:.\Generated_Source\PSoC4/ADC_SAR_Seq.c **** }
 554              		.loc 1 486 0
 555              		@ sp needed
 556 0044 7047     		bx	lr
 557              	.L42:
 558 0046 C046     		.align	2
 559              	.L41:
 560 0048 10021A40 		.word	1075446288
 561              		.cfi_endproc
 562              	.LFE6:
 563              		.size	ADC_SAR_Seq_IsEndConversion, .-ADC_SAR_Seq_IsEndConversion
 564              		.section	.text.ADC_SAR_Seq_GetResult16,"ax",%progbits
 565              		.align	2
 566              		.global	ADC_SAR_Seq_GetResult16
 567              		.code	16
 568              		.thumb_func
 569              		.type	ADC_SAR_Seq_GetResult16, %function
 570              	ADC_SAR_Seq_GetResult16:
 571              	.LFB7:
 487:.\Generated_Source\PSoC4/ADC_SAR_Seq.c **** 
 488:.\Generated_Source\PSoC4/ADC_SAR_Seq.c **** 
 489:.\Generated_Source\PSoC4/ADC_SAR_Seq.c **** /*******************************************************************************
 490:.\Generated_Source\PSoC4/ADC_SAR_Seq.c **** * Function Name: ADC_SAR_Seq_GetResult16
 491:.\Generated_Source\PSoC4/ADC_SAR_Seq.c **** ********************************************************************************
 492:.\Generated_Source\PSoC4/ADC_SAR_Seq.c **** *
 493:.\Generated_Source\PSoC4/ADC_SAR_Seq.c **** * Summary:
 494:.\Generated_Source\PSoC4/ADC_SAR_Seq.c **** *  Gets the data available in the SAR DATA register.
 495:.\Generated_Source\PSoC4/ADC_SAR_Seq.c **** *
 496:.\Generated_Source\PSoC4/ADC_SAR_Seq.c **** * Parameters:
 497:.\Generated_Source\PSoC4/ADC_SAR_Seq.c **** *  chan: The ADC channel in which to return the result. The first channel
 498:.\Generated_Source\PSoC4/ADC_SAR_Seq.c **** *  is 0 and the injection channel if enabled is the number of valid channels.
 499:.\Generated_Source\PSoC4/ADC_SAR_Seq.c **** *
ARM GAS  C:\Users\ELISHA~1\AppData\Local\Temp\ccPvIcbh.s 			page 20


 500:.\Generated_Source\PSoC4/ADC_SAR_Seq.c **** * Return:
 501:.\Generated_Source\PSoC4/ADC_SAR_Seq.c **** *  Returns converted data as a signed 16-bit integer
 502:.\Generated_Source\PSoC4/ADC_SAR_Seq.c **** *
 503:.\Generated_Source\PSoC4/ADC_SAR_Seq.c **** *******************************************************************************/
 504:.\Generated_Source\PSoC4/ADC_SAR_Seq.c **** int16 ADC_SAR_Seq_GetResult16(uint32 chan)
 505:.\Generated_Source\PSoC4/ADC_SAR_Seq.c **** {
 572              		.loc 1 505 0
 573              		.cfi_startproc
 574              	.LVL36:
 575 0000 10B5     		push	{r4, lr}
 576              		.cfi_def_cfa_offset 8
 577              		.cfi_offset 4, -8
 578              		.cfi_offset 14, -4
 579 0002 041E     		sub	r4, r0, #0
 506:.\Generated_Source\PSoC4/ADC_SAR_Seq.c ****     uint32 result;
 507:.\Generated_Source\PSoC4/ADC_SAR_Seq.c **** 
 508:.\Generated_Source\PSoC4/ADC_SAR_Seq.c ****     /* Halt CPU in debug mode if channel is out of valid range */
 509:.\Generated_Source\PSoC4/ADC_SAR_Seq.c ****     CYASSERT(chan < ADC_SAR_Seq_TOTAL_CHANNELS_NUM);
 580              		.loc 1 509 0
 581 0004 012C     		cmp	r4, #1
 582 0006 02D9     		bls	.L44
 583              		.loc 1 509 0 is_stmt 0 discriminator 1
 584 0008 0020     		mov	r0, #0
 585              	.LVL37:
 586 000a FFF7FEFF 		bl	CyHalt
 587              	.LVL38:
 588              	.L44:
 510:.\Generated_Source\PSoC4/ADC_SAR_Seq.c **** 
 511:.\Generated_Source\PSoC4/ADC_SAR_Seq.c ****     if(chan < ADC_SAR_Seq_SEQUENCED_CHANNELS_NUM)
 589              		.loc 1 511 0 is_stmt 1
 590 000e 002C     		cmp	r4, #0
 591 0010 07D1     		bne	.L45
 512:.\Generated_Source\PSoC4/ADC_SAR_Seq.c ****     {
 513:.\Generated_Source\PSoC4/ADC_SAR_Seq.c ****         result = CY_GET_REG32((reg32 *)(ADC_SAR_Seq_SAR_CHAN_RESULT_IND + (uint32)(chan << 2u))) &
 592              		.loc 1 513 0
 593 0012 A400     		lsl	r4, r4, #2
 594              	.LVL39:
 595 0014 064B     		ldr	r3, .L47
 596 0016 9C46     		mov	ip, r3
 597 0018 6444     		add	r4, r4, ip
 598 001a 2068     		ldr	r0, [r4]
 599 001c 0004     		lsl	r0, r0, #16
 600 001e 000C     		lsr	r0, r0, #16
 601              	.LVL40:
 602 0020 03E0     		b	.L46
 603              	.LVL41:
 604              	.L45:
 514:.\Generated_Source\PSoC4/ADC_SAR_Seq.c ****                 ADC_SAR_Seq_RESULT_MASK;
 515:.\Generated_Source\PSoC4/ADC_SAR_Seq.c ****     }
 516:.\Generated_Source\PSoC4/ADC_SAR_Seq.c ****     else
 517:.\Generated_Source\PSoC4/ADC_SAR_Seq.c ****     {
 518:.\Generated_Source\PSoC4/ADC_SAR_Seq.c ****         #if(ADC_SAR_Seq_INJ_CHANNEL_ENABLED)
 519:.\Generated_Source\PSoC4/ADC_SAR_Seq.c ****             result = ADC_SAR_Seq_SAR_INJ_RESULT_REG & ADC_SAR_Seq_RESULT_MASK;
 605              		.loc 1 519 0
 606 0022 044B     		ldr	r3, .L47+4
 607 0024 1868     		ldr	r0, [r3]
 608 0026 0004     		lsl	r0, r0, #16
ARM GAS  C:\Users\ELISHA~1\AppData\Local\Temp\ccPvIcbh.s 			page 21


 609 0028 000C     		lsr	r0, r0, #16
 610              	.LVL42:
 611              	.L46:
 520:.\Generated_Source\PSoC4/ADC_SAR_Seq.c ****         #else
 521:.\Generated_Source\PSoC4/ADC_SAR_Seq.c ****             result = 0u;
 522:.\Generated_Source\PSoC4/ADC_SAR_Seq.c ****         #endif /* ADC_SAR_Seq_INJ_CHANNEL_ENABLED */
 523:.\Generated_Source\PSoC4/ADC_SAR_Seq.c ****     }
 524:.\Generated_Source\PSoC4/ADC_SAR_Seq.c **** 
 525:.\Generated_Source\PSoC4/ADC_SAR_Seq.c ****     return ( (int16)result );
 612              		.loc 1 525 0
 613 002a 00B2     		sxth	r0, r0
 614              	.LVL43:
 526:.\Generated_Source\PSoC4/ADC_SAR_Seq.c **** }
 615              		.loc 1 526 0
 616              		@ sp needed
 617 002c 10BD     		pop	{r4, pc}
 618              	.L48:
 619 002e C046     		.align	2
 620              	.L47:
 621 0030 80011A40 		.word	1075446144
 622 0034 90021A40 		.word	1075446416
 623              		.cfi_endproc
 624              	.LFE7:
 625              		.size	ADC_SAR_Seq_GetResult16, .-ADC_SAR_Seq_GetResult16
 626              		.section	.text.ADC_SAR_Seq_SetChanMask,"ax",%progbits
 627              		.align	2
 628              		.global	ADC_SAR_Seq_SetChanMask
 629              		.code	16
 630              		.thumb_func
 631              		.type	ADC_SAR_Seq_SetChanMask, %function
 632              	ADC_SAR_Seq_SetChanMask:
 633              	.LFB8:
 527:.\Generated_Source\PSoC4/ADC_SAR_Seq.c **** 
 528:.\Generated_Source\PSoC4/ADC_SAR_Seq.c **** 
 529:.\Generated_Source\PSoC4/ADC_SAR_Seq.c **** /*******************************************************************************
 530:.\Generated_Source\PSoC4/ADC_SAR_Seq.c **** * Function Name: ADC_SAR_Seq_SetChanMask
 531:.\Generated_Source\PSoC4/ADC_SAR_Seq.c **** ********************************************************************************
 532:.\Generated_Source\PSoC4/ADC_SAR_Seq.c **** *
 533:.\Generated_Source\PSoC4/ADC_SAR_Seq.c **** * Summary:
 534:.\Generated_Source\PSoC4/ADC_SAR_Seq.c **** *  Sets the channel enable mask.
 535:.\Generated_Source\PSoC4/ADC_SAR_Seq.c **** *
 536:.\Generated_Source\PSoC4/ADC_SAR_Seq.c **** * Parameters:
 537:.\Generated_Source\PSoC4/ADC_SAR_Seq.c **** *  mask: Sets which channels that will be
 538:.\Generated_Source\PSoC4/ADC_SAR_Seq.c **** *  scanned. Setting bits for channels that do not exist will have no
 539:.\Generated_Source\PSoC4/ADC_SAR_Seq.c **** *  effect. For example, if only 6 channels were enabled, setting a
 540:.\Generated_Source\PSoC4/ADC_SAR_Seq.c **** *  mask of 0x0103 would only enable the last two channels (0 and 1).
 541:.\Generated_Source\PSoC4/ADC_SAR_Seq.c **** *  This API will not enable the injection channel.
 542:.\Generated_Source\PSoC4/ADC_SAR_Seq.c **** *  Examples: If the component is setup to sequence through 8
 543:.\Generated_Source\PSoC4/ADC_SAR_Seq.c **** *  channels, a mask of 0x000F would enable channels 0, 1, 2, and 3.
 544:.\Generated_Source\PSoC4/ADC_SAR_Seq.c **** *
 545:.\Generated_Source\PSoC4/ADC_SAR_Seq.c **** * Return:
 546:.\Generated_Source\PSoC4/ADC_SAR_Seq.c **** *  None.
 547:.\Generated_Source\PSoC4/ADC_SAR_Seq.c **** *
 548:.\Generated_Source\PSoC4/ADC_SAR_Seq.c **** *******************************************************************************/
 549:.\Generated_Source\PSoC4/ADC_SAR_Seq.c **** void ADC_SAR_Seq_SetChanMask(uint32 mask)
 550:.\Generated_Source\PSoC4/ADC_SAR_Seq.c **** {
 634              		.loc 1 550 0
ARM GAS  C:\Users\ELISHA~1\AppData\Local\Temp\ccPvIcbh.s 			page 22


 635              		.cfi_startproc
 636              	.LVL44:
 551:.\Generated_Source\PSoC4/ADC_SAR_Seq.c ****     ADC_SAR_Seq_SAR_CHAN_EN_REG = mask & ADC_SAR_Seq_MAX_CHANNELS_EN_MASK;
 637              		.loc 1 551 0
 638 0000 0123     		mov	r3, #1
 639 0002 1840     		and	r0, r3
 640              	.LVL45:
 641 0004 014B     		ldr	r3, .L50
 642 0006 1860     		str	r0, [r3]
 552:.\Generated_Source\PSoC4/ADC_SAR_Seq.c **** }
 643              		.loc 1 552 0
 644              		@ sp needed
 645 0008 7047     		bx	lr
 646              	.L51:
 647 000a C046     		.align	2
 648              	.L50:
 649 000c 20001A40 		.word	1075445792
 650              		.cfi_endproc
 651              	.LFE8:
 652              		.size	ADC_SAR_Seq_SetChanMask, .-ADC_SAR_Seq_SetChanMask
 653              		.section	.text.ADC_SAR_Seq_EnableInjection,"ax",%progbits
 654              		.align	2
 655              		.global	ADC_SAR_Seq_EnableInjection
 656              		.code	16
 657              		.thumb_func
 658              		.type	ADC_SAR_Seq_EnableInjection, %function
 659              	ADC_SAR_Seq_EnableInjection:
 660              	.LFB9:
 553:.\Generated_Source\PSoC4/ADC_SAR_Seq.c **** 
 554:.\Generated_Source\PSoC4/ADC_SAR_Seq.c **** #if(ADC_SAR_Seq_INJ_CHANNEL_ENABLED)
 555:.\Generated_Source\PSoC4/ADC_SAR_Seq.c **** 
 556:.\Generated_Source\PSoC4/ADC_SAR_Seq.c **** 
 557:.\Generated_Source\PSoC4/ADC_SAR_Seq.c ****     /*******************************************************************************
 558:.\Generated_Source\PSoC4/ADC_SAR_Seq.c ****     * Function Name: ADC_SAR_Seq_EnableInjection
 559:.\Generated_Source\PSoC4/ADC_SAR_Seq.c ****     ********************************************************************************
 560:.\Generated_Source\PSoC4/ADC_SAR_Seq.c ****     *
 561:.\Generated_Source\PSoC4/ADC_SAR_Seq.c ****     * Summary:
 562:.\Generated_Source\PSoC4/ADC_SAR_Seq.c ****     *  Enables the injection channel for the next scan only.
 563:.\Generated_Source\PSoC4/ADC_SAR_Seq.c ****     *
 564:.\Generated_Source\PSoC4/ADC_SAR_Seq.c ****     * Parameters:
 565:.\Generated_Source\PSoC4/ADC_SAR_Seq.c ****     *  None.
 566:.\Generated_Source\PSoC4/ADC_SAR_Seq.c ****     *
 567:.\Generated_Source\PSoC4/ADC_SAR_Seq.c ****     * Return:
 568:.\Generated_Source\PSoC4/ADC_SAR_Seq.c ****     *  None.
 569:.\Generated_Source\PSoC4/ADC_SAR_Seq.c ****     *
 570:.\Generated_Source\PSoC4/ADC_SAR_Seq.c ****     *******************************************************************************/
 571:.\Generated_Source\PSoC4/ADC_SAR_Seq.c ****     void ADC_SAR_Seq_EnableInjection(void)
 572:.\Generated_Source\PSoC4/ADC_SAR_Seq.c ****     {
 661              		.loc 1 572 0
 662              		.cfi_startproc
 573:.\Generated_Source\PSoC4/ADC_SAR_Seq.c ****         ADC_SAR_Seq_SAR_INJ_CHAN_CONFIG_REG |= ADC_SAR_Seq_INJ_CHAN_EN;
 663              		.loc 1 573 0
 664 0000 034A     		ldr	r2, .L53
 665 0002 1368     		ldr	r3, [r2]
 666 0004 8021     		mov	r1, #128
 667 0006 0906     		lsl	r1, r1, #24
 668 0008 0B43     		orr	r3, r1
ARM GAS  C:\Users\ELISHA~1\AppData\Local\Temp\ccPvIcbh.s 			page 23


 669 000a 1360     		str	r3, [r2]
 574:.\Generated_Source\PSoC4/ADC_SAR_Seq.c ****     }
 670              		.loc 1 574 0
 671              		@ sp needed
 672 000c 7047     		bx	lr
 673              	.L54:
 674 000e C046     		.align	2
 675              	.L53:
 676 0010 80021A40 		.word	1075446400
 677              		.cfi_endproc
 678              	.LFE9:
 679              		.size	ADC_SAR_Seq_EnableInjection, .-ADC_SAR_Seq_EnableInjection
 680              		.section	.text.ADC_SAR_Seq_SetLowLimit,"ax",%progbits
 681              		.align	2
 682              		.global	ADC_SAR_Seq_SetLowLimit
 683              		.code	16
 684              		.thumb_func
 685              		.type	ADC_SAR_Seq_SetLowLimit, %function
 686              	ADC_SAR_Seq_SetLowLimit:
 687              	.LFB10:
 575:.\Generated_Source\PSoC4/ADC_SAR_Seq.c **** 
 576:.\Generated_Source\PSoC4/ADC_SAR_Seq.c **** #endif /* ADC_SAR_Seq_INJ_CHANNEL_ENABLED */
 577:.\Generated_Source\PSoC4/ADC_SAR_Seq.c **** 
 578:.\Generated_Source\PSoC4/ADC_SAR_Seq.c **** 
 579:.\Generated_Source\PSoC4/ADC_SAR_Seq.c **** /*******************************************************************************
 580:.\Generated_Source\PSoC4/ADC_SAR_Seq.c **** * Function Name: ADC_SAR_Seq_SetLowLimit
 581:.\Generated_Source\PSoC4/ADC_SAR_Seq.c **** ********************************************************************************
 582:.\Generated_Source\PSoC4/ADC_SAR_Seq.c **** *
 583:.\Generated_Source\PSoC4/ADC_SAR_Seq.c **** * Summary:
 584:.\Generated_Source\PSoC4/ADC_SAR_Seq.c **** *  Sets the low limit parameter for a limit condition.
 585:.\Generated_Source\PSoC4/ADC_SAR_Seq.c **** *
 586:.\Generated_Source\PSoC4/ADC_SAR_Seq.c **** * Parameters:
 587:.\Generated_Source\PSoC4/ADC_SAR_Seq.c **** *  lowLimit: The low limit for a limit condition.
 588:.\Generated_Source\PSoC4/ADC_SAR_Seq.c **** *
 589:.\Generated_Source\PSoC4/ADC_SAR_Seq.c **** * Return:
 590:.\Generated_Source\PSoC4/ADC_SAR_Seq.c **** *  None.
 591:.\Generated_Source\PSoC4/ADC_SAR_Seq.c **** *
 592:.\Generated_Source\PSoC4/ADC_SAR_Seq.c **** *******************************************************************************/
 593:.\Generated_Source\PSoC4/ADC_SAR_Seq.c **** void ADC_SAR_Seq_SetLowLimit(uint32 lowLimit)
 594:.\Generated_Source\PSoC4/ADC_SAR_Seq.c **** {
 688              		.loc 1 594 0
 689              		.cfi_startproc
 690              	.LVL46:
 595:.\Generated_Source\PSoC4/ADC_SAR_Seq.c ****     ADC_SAR_Seq_SAR_RANGE_THRES_REG &= (uint32)(~ADC_SAR_Seq_RANGE_LOW_MASK);
 691              		.loc 1 595 0
 692 0000 054A     		ldr	r2, .L56
 693 0002 1368     		ldr	r3, [r2]
 694 0004 1B0C     		lsr	r3, r3, #16
 695 0006 1B04     		lsl	r3, r3, #16
 696 0008 1360     		str	r3, [r2]
 596:.\Generated_Source\PSoC4/ADC_SAR_Seq.c ****     ADC_SAR_Seq_SAR_RANGE_THRES_REG |= lowLimit & ADC_SAR_Seq_RANGE_LOW_MASK;
 697              		.loc 1 596 0
 698 000a 1368     		ldr	r3, [r2]
 699 000c 0004     		lsl	r0, r0, #16
 700              	.LVL47:
 701 000e 000C     		lsr	r0, r0, #16
 702 0010 1843     		orr	r0, r3
ARM GAS  C:\Users\ELISHA~1\AppData\Local\Temp\ccPvIcbh.s 			page 24


 703 0012 1060     		str	r0, [r2]
 597:.\Generated_Source\PSoC4/ADC_SAR_Seq.c **** }
 704              		.loc 1 597 0
 705              		@ sp needed
 706 0014 7047     		bx	lr
 707              	.L57:
 708 0016 C046     		.align	2
 709              	.L56:
 710 0018 18001A40 		.word	1075445784
 711              		.cfi_endproc
 712              	.LFE10:
 713              		.size	ADC_SAR_Seq_SetLowLimit, .-ADC_SAR_Seq_SetLowLimit
 714              		.section	.text.ADC_SAR_Seq_SetHighLimit,"ax",%progbits
 715              		.align	2
 716              		.global	ADC_SAR_Seq_SetHighLimit
 717              		.code	16
 718              		.thumb_func
 719              		.type	ADC_SAR_Seq_SetHighLimit, %function
 720              	ADC_SAR_Seq_SetHighLimit:
 721              	.LFB11:
 598:.\Generated_Source\PSoC4/ADC_SAR_Seq.c **** 
 599:.\Generated_Source\PSoC4/ADC_SAR_Seq.c **** 
 600:.\Generated_Source\PSoC4/ADC_SAR_Seq.c **** /*******************************************************************************
 601:.\Generated_Source\PSoC4/ADC_SAR_Seq.c **** * Function Name: ADC_SAR_Seq_SetHighLimit
 602:.\Generated_Source\PSoC4/ADC_SAR_Seq.c **** ********************************************************************************
 603:.\Generated_Source\PSoC4/ADC_SAR_Seq.c **** *
 604:.\Generated_Source\PSoC4/ADC_SAR_Seq.c **** * Summary:
 605:.\Generated_Source\PSoC4/ADC_SAR_Seq.c **** *  Sets the low limit parameter for a limit condition.
 606:.\Generated_Source\PSoC4/ADC_SAR_Seq.c **** *
 607:.\Generated_Source\PSoC4/ADC_SAR_Seq.c **** * Parameters:
 608:.\Generated_Source\PSoC4/ADC_SAR_Seq.c **** *  highLimit: The high limit for a limit condition.
 609:.\Generated_Source\PSoC4/ADC_SAR_Seq.c **** *
 610:.\Generated_Source\PSoC4/ADC_SAR_Seq.c **** * Return:
 611:.\Generated_Source\PSoC4/ADC_SAR_Seq.c **** *  None.
 612:.\Generated_Source\PSoC4/ADC_SAR_Seq.c **** *
 613:.\Generated_Source\PSoC4/ADC_SAR_Seq.c **** *******************************************************************************/
 614:.\Generated_Source\PSoC4/ADC_SAR_Seq.c **** void ADC_SAR_Seq_SetHighLimit(uint32 highLimit)
 615:.\Generated_Source\PSoC4/ADC_SAR_Seq.c **** {
 722              		.loc 1 615 0
 723              		.cfi_startproc
 724              	.LVL48:
 616:.\Generated_Source\PSoC4/ADC_SAR_Seq.c ****     ADC_SAR_Seq_SAR_RANGE_THRES_REG &= (uint32)(~ADC_SAR_Seq_RANGE_HIGH_MASK);
 725              		.loc 1 616 0
 726 0000 044A     		ldr	r2, .L59
 727 0002 1368     		ldr	r3, [r2]
 728 0004 1B04     		lsl	r3, r3, #16
 729 0006 1B0C     		lsr	r3, r3, #16
 730 0008 1360     		str	r3, [r2]
 617:.\Generated_Source\PSoC4/ADC_SAR_Seq.c ****     ADC_SAR_Seq_SAR_RANGE_THRES_REG |= (uint32)(highLimit << ADC_SAR_Seq_RANGE_HIGH_OFFSET);
 731              		.loc 1 617 0
 732 000a 1368     		ldr	r3, [r2]
 733 000c 0004     		lsl	r0, r0, #16
 734              	.LVL49:
 735 000e 1843     		orr	r0, r3
 736 0010 1060     		str	r0, [r2]
 618:.\Generated_Source\PSoC4/ADC_SAR_Seq.c **** }
 737              		.loc 1 618 0
ARM GAS  C:\Users\ELISHA~1\AppData\Local\Temp\ccPvIcbh.s 			page 25


 738              		@ sp needed
 739 0012 7047     		bx	lr
 740              	.L60:
 741              		.align	2
 742              	.L59:
 743 0014 18001A40 		.word	1075445784
 744              		.cfi_endproc
 745              	.LFE11:
 746              		.size	ADC_SAR_Seq_SetHighLimit, .-ADC_SAR_Seq_SetHighLimit
 747              		.section	.text.ADC_SAR_Seq_SetLimitMask,"ax",%progbits
 748              		.align	2
 749              		.global	ADC_SAR_Seq_SetLimitMask
 750              		.code	16
 751              		.thumb_func
 752              		.type	ADC_SAR_Seq_SetLimitMask, %function
 753              	ADC_SAR_Seq_SetLimitMask:
 754              	.LFB12:
 619:.\Generated_Source\PSoC4/ADC_SAR_Seq.c **** 
 620:.\Generated_Source\PSoC4/ADC_SAR_Seq.c **** 
 621:.\Generated_Source\PSoC4/ADC_SAR_Seq.c **** /*******************************************************************************
 622:.\Generated_Source\PSoC4/ADC_SAR_Seq.c **** * Function Name: ADC_SAR_Seq_SetLimitMask
 623:.\Generated_Source\PSoC4/ADC_SAR_Seq.c **** ********************************************************************************
 624:.\Generated_Source\PSoC4/ADC_SAR_Seq.c **** *
 625:.\Generated_Source\PSoC4/ADC_SAR_Seq.c **** * Summary:
 626:.\Generated_Source\PSoC4/ADC_SAR_Seq.c **** *  Sets the channel limit condition mask.
 627:.\Generated_Source\PSoC4/ADC_SAR_Seq.c **** *
 628:.\Generated_Source\PSoC4/ADC_SAR_Seq.c **** * Parameters:
 629:.\Generated_Source\PSoC4/ADC_SAR_Seq.c **** *  mask: Sets which channels that may cause a
 630:.\Generated_Source\PSoC4/ADC_SAR_Seq.c **** *  limit condition interrupt. Setting bits for channels that do not exist
 631:.\Generated_Source\PSoC4/ADC_SAR_Seq.c **** *  will have no effect. For example, if only 6 channels were enabled,
 632:.\Generated_Source\PSoC4/ADC_SAR_Seq.c **** *  setting a mask of 0x0103 would only enable the last two channels (0 and 1).
 633:.\Generated_Source\PSoC4/ADC_SAR_Seq.c **** *
 634:.\Generated_Source\PSoC4/ADC_SAR_Seq.c **** * Return:
 635:.\Generated_Source\PSoC4/ADC_SAR_Seq.c **** *  None.
 636:.\Generated_Source\PSoC4/ADC_SAR_Seq.c **** *
 637:.\Generated_Source\PSoC4/ADC_SAR_Seq.c **** *******************************************************************************/
 638:.\Generated_Source\PSoC4/ADC_SAR_Seq.c **** void ADC_SAR_Seq_SetLimitMask(uint32 mask)
 639:.\Generated_Source\PSoC4/ADC_SAR_Seq.c **** {
 755              		.loc 1 639 0
 756              		.cfi_startproc
 757              	.LVL50:
 640:.\Generated_Source\PSoC4/ADC_SAR_Seq.c ****     ADC_SAR_Seq_SAR_RANGE_INTR_MASK_REG = mask & ADC_SAR_Seq_MAX_CHANNELS_EN_MASK;
 758              		.loc 1 640 0
 759 0000 0123     		mov	r3, #1
 760 0002 1840     		and	r0, r3
 761              	.LVL51:
 762 0004 014B     		ldr	r3, .L62
 763 0006 1860     		str	r0, [r3]
 641:.\Generated_Source\PSoC4/ADC_SAR_Seq.c **** }
 764              		.loc 1 641 0
 765              		@ sp needed
 766 0008 7047     		bx	lr
 767              	.L63:
 768 000a C046     		.align	2
 769              	.L62:
 770 000c 38021A40 		.word	1075446328
 771              		.cfi_endproc
ARM GAS  C:\Users\ELISHA~1\AppData\Local\Temp\ccPvIcbh.s 			page 26


 772              	.LFE12:
 773              		.size	ADC_SAR_Seq_SetLimitMask, .-ADC_SAR_Seq_SetLimitMask
 774              		.section	.text.ADC_SAR_Seq_SetSatMask,"ax",%progbits
 775              		.align	2
 776              		.global	ADC_SAR_Seq_SetSatMask
 777              		.code	16
 778              		.thumb_func
 779              		.type	ADC_SAR_Seq_SetSatMask, %function
 780              	ADC_SAR_Seq_SetSatMask:
 781              	.LFB13:
 642:.\Generated_Source\PSoC4/ADC_SAR_Seq.c **** 
 643:.\Generated_Source\PSoC4/ADC_SAR_Seq.c **** 
 644:.\Generated_Source\PSoC4/ADC_SAR_Seq.c **** /*******************************************************************************
 645:.\Generated_Source\PSoC4/ADC_SAR_Seq.c **** * Function Name: ADC_SAR_Seq_SetSatMask
 646:.\Generated_Source\PSoC4/ADC_SAR_Seq.c **** ********************************************************************************
 647:.\Generated_Source\PSoC4/ADC_SAR_Seq.c **** *
 648:.\Generated_Source\PSoC4/ADC_SAR_Seq.c **** * Summary:
 649:.\Generated_Source\PSoC4/ADC_SAR_Seq.c **** *  Sets the channel saturation event mask.
 650:.\Generated_Source\PSoC4/ADC_SAR_Seq.c **** *
 651:.\Generated_Source\PSoC4/ADC_SAR_Seq.c **** * Parameters:
 652:.\Generated_Source\PSoC4/ADC_SAR_Seq.c **** *  mask: Sets which channels that may cause a
 653:.\Generated_Source\PSoC4/ADC_SAR_Seq.c **** *  saturation event interrupt. Setting bits for channels that do not exist
 654:.\Generated_Source\PSoC4/ADC_SAR_Seq.c **** *  will have no effect. For example, if only 8 channels were enabled,
 655:.\Generated_Source\PSoC4/ADC_SAR_Seq.c **** *  setting a mask of 0x01C0 would only enable two channels (6 and 7).
 656:.\Generated_Source\PSoC4/ADC_SAR_Seq.c **** *
 657:.\Generated_Source\PSoC4/ADC_SAR_Seq.c **** * Return:
 658:.\Generated_Source\PSoC4/ADC_SAR_Seq.c **** *  None.
 659:.\Generated_Source\PSoC4/ADC_SAR_Seq.c **** *
 660:.\Generated_Source\PSoC4/ADC_SAR_Seq.c **** *******************************************************************************/
 661:.\Generated_Source\PSoC4/ADC_SAR_Seq.c **** void ADC_SAR_Seq_SetSatMask(uint32 mask)
 662:.\Generated_Source\PSoC4/ADC_SAR_Seq.c **** {
 782              		.loc 1 662 0
 783              		.cfi_startproc
 784              	.LVL52:
 663:.\Generated_Source\PSoC4/ADC_SAR_Seq.c ****     ADC_SAR_Seq_SAR_SATURATE_INTR_MASK_REG = mask & ADC_SAR_Seq_MAX_CHANNELS_EN_MASK;
 785              		.loc 1 663 0
 786 0000 0123     		mov	r3, #1
 787 0002 1840     		and	r0, r3
 788              	.LVL53:
 789 0004 014B     		ldr	r3, .L65
 790 0006 1860     		str	r0, [r3]
 664:.\Generated_Source\PSoC4/ADC_SAR_Seq.c **** }
 791              		.loc 1 664 0
 792              		@ sp needed
 793 0008 7047     		bx	lr
 794              	.L66:
 795 000a C046     		.align	2
 796              	.L65:
 797 000c 28021A40 		.word	1075446312
 798              		.cfi_endproc
 799              	.LFE13:
 800              		.size	ADC_SAR_Seq_SetSatMask, .-ADC_SAR_Seq_SetSatMask
 801              		.section	.text.ADC_SAR_Seq_SetOffset,"ax",%progbits
 802              		.align	2
 803              		.global	ADC_SAR_Seq_SetOffset
 804              		.code	16
 805              		.thumb_func
ARM GAS  C:\Users\ELISHA~1\AppData\Local\Temp\ccPvIcbh.s 			page 27


 806              		.type	ADC_SAR_Seq_SetOffset, %function
 807              	ADC_SAR_Seq_SetOffset:
 808              	.LFB14:
 665:.\Generated_Source\PSoC4/ADC_SAR_Seq.c **** 
 666:.\Generated_Source\PSoC4/ADC_SAR_Seq.c **** 
 667:.\Generated_Source\PSoC4/ADC_SAR_Seq.c **** /*******************************************************************************
 668:.\Generated_Source\PSoC4/ADC_SAR_Seq.c **** * Function Name: ADC_SAR_Seq_SetOffset
 669:.\Generated_Source\PSoC4/ADC_SAR_Seq.c **** ********************************************************************************
 670:.\Generated_Source\PSoC4/ADC_SAR_Seq.c **** *
 671:.\Generated_Source\PSoC4/ADC_SAR_Seq.c **** * Summary:
 672:.\Generated_Source\PSoC4/ADC_SAR_Seq.c **** *   Description: Sets the ADC offset which is used by the functions
 673:.\Generated_Source\PSoC4/ADC_SAR_Seq.c **** *   ADC_CountsTo_uVolts, ADC_CountsTo_mVolts and ADC_CountsTo_Volts
 674:.\Generated_Source\PSoC4/ADC_SAR_Seq.c **** *   to substract the offset from the given reading
 675:.\Generated_Source\PSoC4/ADC_SAR_Seq.c **** *   before calculating the voltage conversion.
 676:.\Generated_Source\PSoC4/ADC_SAR_Seq.c **** *
 677:.\Generated_Source\PSoC4/ADC_SAR_Seq.c **** * Parameters:
 678:.\Generated_Source\PSoC4/ADC_SAR_Seq.c **** *  chan: ADC channel number.
 679:.\Generated_Source\PSoC4/ADC_SAR_Seq.c **** *  offset: This value is a measured value when the
 680:.\Generated_Source\PSoC4/ADC_SAR_Seq.c **** *          inputs are shorted or connected to the same input voltage.
 681:.\Generated_Source\PSoC4/ADC_SAR_Seq.c **** *
 682:.\Generated_Source\PSoC4/ADC_SAR_Seq.c **** * Return:
 683:.\Generated_Source\PSoC4/ADC_SAR_Seq.c **** *  None.
 684:.\Generated_Source\PSoC4/ADC_SAR_Seq.c **** *
 685:.\Generated_Source\PSoC4/ADC_SAR_Seq.c **** * Global variables:
 686:.\Generated_Source\PSoC4/ADC_SAR_Seq.c **** *  ADC_SAR_Seq_Offset:  Modified to set the user provided offset.
 687:.\Generated_Source\PSoC4/ADC_SAR_Seq.c **** *
 688:.\Generated_Source\PSoC4/ADC_SAR_Seq.c **** *******************************************************************************/
 689:.\Generated_Source\PSoC4/ADC_SAR_Seq.c **** void ADC_SAR_Seq_SetOffset(uint32 chan, int16 offset)
 690:.\Generated_Source\PSoC4/ADC_SAR_Seq.c **** {
 809              		.loc 1 690 0
 810              		.cfi_startproc
 811              	.LVL54:
 812 0000 38B5     		push	{r3, r4, r5, lr}
 813              		.cfi_def_cfa_offset 16
 814              		.cfi_offset 3, -16
 815              		.cfi_offset 4, -12
 816              		.cfi_offset 5, -8
 817              		.cfi_offset 14, -4
 818 0002 041C     		mov	r4, r0
 819 0004 0D1C     		mov	r5, r1
 691:.\Generated_Source\PSoC4/ADC_SAR_Seq.c ****     /* Halt CPU in debug mode if channel is out of valid range */
 692:.\Generated_Source\PSoC4/ADC_SAR_Seq.c ****     CYASSERT(chan < ADC_SAR_Seq_TOTAL_CHANNELS_NUM);
 820              		.loc 1 692 0
 821 0006 0128     		cmp	r0, #1
 822 0008 02D9     		bls	.L68
 823              		.loc 1 692 0 is_stmt 0 discriminator 1
 824 000a 0020     		mov	r0, #0
 825              	.LVL55:
 826 000c FFF7FEFF 		bl	CyHalt
 827              	.LVL56:
 828              	.L68:
 693:.\Generated_Source\PSoC4/ADC_SAR_Seq.c **** 
 694:.\Generated_Source\PSoC4/ADC_SAR_Seq.c ****     ADC_SAR_Seq_offset[chan] = offset;
 829              		.loc 1 694 0 is_stmt 1
 830 0010 6400     		lsl	r4, r4, #1
 831              	.LVL57:
 832 0012 014B     		ldr	r3, .L69
ARM GAS  C:\Users\ELISHA~1\AppData\Local\Temp\ccPvIcbh.s 			page 28


 833 0014 E552     		strh	r5, [r4, r3]
 695:.\Generated_Source\PSoC4/ADC_SAR_Seq.c **** }
 834              		.loc 1 695 0
 835              		@ sp needed
 836 0016 38BD     		pop	{r3, r4, r5, pc}
 837              	.L70:
 838              		.align	2
 839              	.L69:
 840 0018 00000000 		.word	ADC_SAR_Seq_offset
 841              		.cfi_endproc
 842              	.LFE14:
 843              		.size	ADC_SAR_Seq_SetOffset, .-ADC_SAR_Seq_SetOffset
 844              		.section	.text.ADC_SAR_Seq_SetGain,"ax",%progbits
 845              		.align	2
 846              		.global	ADC_SAR_Seq_SetGain
 847              		.code	16
 848              		.thumb_func
 849              		.type	ADC_SAR_Seq_SetGain, %function
 850              	ADC_SAR_Seq_SetGain:
 851              	.LFB15:
 696:.\Generated_Source\PSoC4/ADC_SAR_Seq.c **** 
 697:.\Generated_Source\PSoC4/ADC_SAR_Seq.c **** 
 698:.\Generated_Source\PSoC4/ADC_SAR_Seq.c **** /*******************************************************************************
 699:.\Generated_Source\PSoC4/ADC_SAR_Seq.c **** * Function Name: ADC_SAR_Seq_SetGain
 700:.\Generated_Source\PSoC4/ADC_SAR_Seq.c **** ********************************************************************************
 701:.\Generated_Source\PSoC4/ADC_SAR_Seq.c **** *
 702:.\Generated_Source\PSoC4/ADC_SAR_Seq.c **** * Summary:
 703:.\Generated_Source\PSoC4/ADC_SAR_Seq.c **** *  Description: Sets the ADC gain in counts per 10 volt for the voltage
 704:.\Generated_Source\PSoC4/ADC_SAR_Seq.c **** *  conversion functions below. This value is set by default by the
 705:.\Generated_Source\PSoC4/ADC_SAR_Seq.c **** *  reference and input range settings. It should only be used to further
 706:.\Generated_Source\PSoC4/ADC_SAR_Seq.c **** *  calibrate the ADC with a known input or if an external reference is
 707:.\Generated_Source\PSoC4/ADC_SAR_Seq.c **** *  used. Affects the ADC_CountsTo_uVolts, ADC_CountsTo_mVolts
 708:.\Generated_Source\PSoC4/ADC_SAR_Seq.c **** *  and ADC_CountsTo_Volts functions by supplying the correct
 709:.\Generated_Source\PSoC4/ADC_SAR_Seq.c **** *  conversion between ADC counts and voltage.
 710:.\Generated_Source\PSoC4/ADC_SAR_Seq.c **** *
 711:.\Generated_Source\PSoC4/ADC_SAR_Seq.c **** * Parameters:
 712:.\Generated_Source\PSoC4/ADC_SAR_Seq.c **** *  chan: ADC channel number.
 713:.\Generated_Source\PSoC4/ADC_SAR_Seq.c **** *  adcGain: ADC gain in counts per 10 volts.
 714:.\Generated_Source\PSoC4/ADC_SAR_Seq.c **** *
 715:.\Generated_Source\PSoC4/ADC_SAR_Seq.c **** * Return:
 716:.\Generated_Source\PSoC4/ADC_SAR_Seq.c **** *  None.
 717:.\Generated_Source\PSoC4/ADC_SAR_Seq.c **** *
 718:.\Generated_Source\PSoC4/ADC_SAR_Seq.c **** * Global variables:
 719:.\Generated_Source\PSoC4/ADC_SAR_Seq.c **** *  ADC_SAR_Seq_CountsPer10Volt:  modified to set the ADC gain in counts
 720:.\Generated_Source\PSoC4/ADC_SAR_Seq.c **** *   per 10 volt.
 721:.\Generated_Source\PSoC4/ADC_SAR_Seq.c **** *
 722:.\Generated_Source\PSoC4/ADC_SAR_Seq.c **** *******************************************************************************/
 723:.\Generated_Source\PSoC4/ADC_SAR_Seq.c **** void ADC_SAR_Seq_SetGain(uint32 chan, int32 adcGain)
 724:.\Generated_Source\PSoC4/ADC_SAR_Seq.c **** {
 852              		.loc 1 724 0
 853              		.cfi_startproc
 854              	.LVL58:
 855 0000 38B5     		push	{r3, r4, r5, lr}
 856              		.cfi_def_cfa_offset 16
 857              		.cfi_offset 3, -16
 858              		.cfi_offset 4, -12
 859              		.cfi_offset 5, -8
ARM GAS  C:\Users\ELISHA~1\AppData\Local\Temp\ccPvIcbh.s 			page 29


 860              		.cfi_offset 14, -4
 861 0002 041C     		mov	r4, r0
 862 0004 0D1C     		mov	r5, r1
 725:.\Generated_Source\PSoC4/ADC_SAR_Seq.c ****     /* Halt CPU in debug mode if channel is out of valid range */
 726:.\Generated_Source\PSoC4/ADC_SAR_Seq.c ****     CYASSERT(chan < ADC_SAR_Seq_TOTAL_CHANNELS_NUM);
 863              		.loc 1 726 0
 864 0006 0128     		cmp	r0, #1
 865 0008 02D9     		bls	.L72
 866              		.loc 1 726 0 is_stmt 0 discriminator 1
 867 000a 0020     		mov	r0, #0
 868              	.LVL59:
 869 000c FFF7FEFF 		bl	CyHalt
 870              	.LVL60:
 871              	.L72:
 727:.\Generated_Source\PSoC4/ADC_SAR_Seq.c **** 
 728:.\Generated_Source\PSoC4/ADC_SAR_Seq.c ****     ADC_SAR_Seq_countsPer10Volt[chan] = adcGain;
 872              		.loc 1 728 0 is_stmt 1
 873 0010 A400     		lsl	r4, r4, #2
 874              	.LVL61:
 875 0012 014B     		ldr	r3, .L73
 876 0014 E550     		str	r5, [r4, r3]
 729:.\Generated_Source\PSoC4/ADC_SAR_Seq.c **** }
 877              		.loc 1 729 0
 878              		@ sp needed
 879              	.LVL62:
 880 0016 38BD     		pop	{r3, r4, r5, pc}
 881              	.L74:
 882              		.align	2
 883              	.L73:
 884 0018 00000000 		.word	ADC_SAR_Seq_countsPer10Volt
 885              		.cfi_endproc
 886              	.LFE15:
 887              		.size	ADC_SAR_Seq_SetGain, .-ADC_SAR_Seq_SetGain
 888              		.global	__aeabi_idiv
 889              		.section	.text.ADC_SAR_Seq_CountsTo_mVolts,"ax",%progbits
 890              		.align	2
 891              		.global	ADC_SAR_Seq_CountsTo_mVolts
 892              		.code	16
 893              		.thumb_func
 894              		.type	ADC_SAR_Seq_CountsTo_mVolts, %function
 895              	ADC_SAR_Seq_CountsTo_mVolts:
 896              	.LFB16:
 730:.\Generated_Source\PSoC4/ADC_SAR_Seq.c **** 
 731:.\Generated_Source\PSoC4/ADC_SAR_Seq.c **** 
 732:.\Generated_Source\PSoC4/ADC_SAR_Seq.c **** #if(ADC_SAR_Seq_DEFAULT_JUSTIFICATION_SEL == ADC_SAR_Seq__RIGHT)
 733:.\Generated_Source\PSoC4/ADC_SAR_Seq.c **** 
 734:.\Generated_Source\PSoC4/ADC_SAR_Seq.c **** 
 735:.\Generated_Source\PSoC4/ADC_SAR_Seq.c ****     /*******************************************************************************
 736:.\Generated_Source\PSoC4/ADC_SAR_Seq.c ****     * Function Name: ADC_SAR_Seq_CountsTo_mVolts
 737:.\Generated_Source\PSoC4/ADC_SAR_Seq.c ****     ********************************************************************************
 738:.\Generated_Source\PSoC4/ADC_SAR_Seq.c ****     *
 739:.\Generated_Source\PSoC4/ADC_SAR_Seq.c ****     * Summary:
 740:.\Generated_Source\PSoC4/ADC_SAR_Seq.c ****     *  This function converts ADC counts to mVolts
 741:.\Generated_Source\PSoC4/ADC_SAR_Seq.c ****     *  This function is not available when left data format justification selected.
 742:.\Generated_Source\PSoC4/ADC_SAR_Seq.c ****     *
 743:.\Generated_Source\PSoC4/ADC_SAR_Seq.c ****     * Parameters:
 744:.\Generated_Source\PSoC4/ADC_SAR_Seq.c ****     *  chan: The ADC channel number.
ARM GAS  C:\Users\ELISHA~1\AppData\Local\Temp\ccPvIcbh.s 			page 30


 745:.\Generated_Source\PSoC4/ADC_SAR_Seq.c ****     *  adcCounts: Result from the ADC conversion
 746:.\Generated_Source\PSoC4/ADC_SAR_Seq.c ****     *
 747:.\Generated_Source\PSoC4/ADC_SAR_Seq.c ****     * Return:
 748:.\Generated_Source\PSoC4/ADC_SAR_Seq.c ****     *  Results in mVolts
 749:.\Generated_Source\PSoC4/ADC_SAR_Seq.c ****     *
 750:.\Generated_Source\PSoC4/ADC_SAR_Seq.c ****     * Global variables:
 751:.\Generated_Source\PSoC4/ADC_SAR_Seq.c ****     *  ADC_SAR_Seq_countsPer10Volt:  used to convert ADC counts to mVolts.
 752:.\Generated_Source\PSoC4/ADC_SAR_Seq.c ****     *  ADC_SAR_Seq_Offset:  Used as the offset while converting ADC counts
 753:.\Generated_Source\PSoC4/ADC_SAR_Seq.c ****     *   to mVolts.
 754:.\Generated_Source\PSoC4/ADC_SAR_Seq.c ****     *
 755:.\Generated_Source\PSoC4/ADC_SAR_Seq.c ****     *******************************************************************************/
 756:.\Generated_Source\PSoC4/ADC_SAR_Seq.c ****     int16 ADC_SAR_Seq_CountsTo_mVolts(uint32 chan, int16 adcCounts)
 757:.\Generated_Source\PSoC4/ADC_SAR_Seq.c ****     {
 897              		.loc 1 757 0
 898              		.cfi_startproc
 899              	.LVL63:
 900 0000 38B5     		push	{r3, r4, r5, lr}
 901              		.cfi_def_cfa_offset 16
 902              		.cfi_offset 3, -16
 903              		.cfi_offset 4, -12
 904              		.cfi_offset 5, -8
 905              		.cfi_offset 14, -4
 906 0002 041C     		mov	r4, r0
 907 0004 0D1C     		mov	r5, r1
 758:.\Generated_Source\PSoC4/ADC_SAR_Seq.c ****         int16 mVolts;
 759:.\Generated_Source\PSoC4/ADC_SAR_Seq.c **** 
 760:.\Generated_Source\PSoC4/ADC_SAR_Seq.c ****         /* Halt CPU in debug mode if channel is out of valid range */
 761:.\Generated_Source\PSoC4/ADC_SAR_Seq.c ****         CYASSERT(chan < ADC_SAR_Seq_TOTAL_CHANNELS_NUM);
 908              		.loc 1 761 0
 909 0006 0128     		cmp	r0, #1
 910 0008 02D9     		bls	.L76
 911              		.loc 1 761 0 is_stmt 0 discriminator 1
 912 000a 0020     		mov	r0, #0
 913              	.LVL64:
 914 000c FFF7FEFF 		bl	CyHalt
 915              	.LVL65:
 916              	.L76:
 762:.\Generated_Source\PSoC4/ADC_SAR_Seq.c **** 
 763:.\Generated_Source\PSoC4/ADC_SAR_Seq.c ****         /* Divide the adcCount when accumulate averaging mode selected */
 764:.\Generated_Source\PSoC4/ADC_SAR_Seq.c ****         #if(ADC_SAR_Seq_DEFAULT_AVG_MODE == ADC_SAR_Seq__ACCUMULATE)
 765:.\Generated_Source\PSoC4/ADC_SAR_Seq.c ****             if((ADC_SAR_Seq_channelsConfig[chan] & ADC_SAR_Seq_AVERAGING_EN) != 0u)
 766:.\Generated_Source\PSoC4/ADC_SAR_Seq.c ****             {
 767:.\Generated_Source\PSoC4/ADC_SAR_Seq.c ****                 adcCounts /= ADC_SAR_Seq_DEFAULT_AVG_SAMPLES_DIV;
 768:.\Generated_Source\PSoC4/ADC_SAR_Seq.c ****             }
 769:.\Generated_Source\PSoC4/ADC_SAR_Seq.c ****         #endif /* ADC_SAR_Seq_DEFAULT_AVG_MODE == ADC_SAR_Seq__ACCUMULATE */
 770:.\Generated_Source\PSoC4/ADC_SAR_Seq.c **** 
 771:.\Generated_Source\PSoC4/ADC_SAR_Seq.c ****         /* Subtract ADC offset */
 772:.\Generated_Source\PSoC4/ADC_SAR_Seq.c ****         adcCounts -= ADC_SAR_Seq_offset[chan];
 917              		.loc 1 772 0 is_stmt 1
 918 0010 6300     		lsl	r3, r4, #1
 919 0012 0F4A     		ldr	r2, .L79
 920 0014 995A     		ldrh	r1, [r3, r2]
 921 0016 691A     		sub	r1, r5, r1
 922 0018 09B2     		sxth	r1, r1
 923              	.LVL66:
 773:.\Generated_Source\PSoC4/ADC_SAR_Seq.c **** 
 774:.\Generated_Source\PSoC4/ADC_SAR_Seq.c ****         mVolts = (int16)((((int32)adcCounts * ADC_SAR_Seq_10MV_COUNTS) + ( (adcCounts > 0) ?
ARM GAS  C:\Users\ELISHA~1\AppData\Local\Temp\ccPvIcbh.s 			page 31


 924              		.loc 1 774 0
 925 001a 0E48     		ldr	r0, .L79+4
 926 001c 021C     		mov	r2, r0
 927 001e 4A43     		mul	r2, r1
 775:.\Generated_Source\PSoC4/ADC_SAR_Seq.c ****                  (ADC_SAR_Seq_countsPer10Volt[chan] / 2) : (-(ADC_SAR_Seq_countsPer10Volt[chan] / 2
 928              		.loc 1 775 0
 929 0020 0029     		cmp	r1, #0
 930 0022 06DD     		ble	.L77
 931              		.loc 1 775 0 is_stmt 0 discriminator 1
 932 0024 A300     		lsl	r3, r4, #2
 933 0026 0C49     		ldr	r1, .L79+8
 934              	.LVL67:
 935 0028 5B58     		ldr	r3, [r3, r1]
 936 002a D80F     		lsr	r0, r3, #31
 937 002c C018     		add	r0, r0, r3
 938 002e 4310     		asr	r3, r0, #1
 939 0030 06E0     		b	.L78
 940              	.LVL68:
 941              	.L77:
 942              		.loc 1 775 0 discriminator 2
 943 0032 A300     		lsl	r3, r4, #2
 944 0034 0849     		ldr	r1, .L79+8
 945              	.LVL69:
 946 0036 5B58     		ldr	r3, [r3, r1]
 947 0038 D80F     		lsr	r0, r3, #31
 948 003a C318     		add	r3, r0, r3
 949 003c 5B10     		asr	r3, r3, #1
 950 003e 5B42     		neg	r3, r3
 951              	.L78:
 774:.\Generated_Source\PSoC4/ADC_SAR_Seq.c ****                  (ADC_SAR_Seq_countsPer10Volt[chan] / 2) : (-(ADC_SAR_Seq_countsPer10Volt[chan] / 2
 952              		.loc 1 774 0 is_stmt 1
 953 0040 D018     		add	r0, r2, r3
 776:.\Generated_Source\PSoC4/ADC_SAR_Seq.c ****                  / ADC_SAR_Seq_countsPer10Volt[chan]);
 954              		.loc 1 776 0
 955 0042 A400     		lsl	r4, r4, #2
 956              	.LVL70:
 957 0044 044B     		ldr	r3, .L79+8
 958 0046 E158     		ldr	r1, [r4, r3]
 959 0048 FFF7FEFF 		bl	__aeabi_idiv
 960              	.LVL71:
 777:.\Generated_Source\PSoC4/ADC_SAR_Seq.c **** 
 778:.\Generated_Source\PSoC4/ADC_SAR_Seq.c ****         return( mVolts );
 961              		.loc 1 778 0
 962 004c 00B2     		sxth	r0, r0
 779:.\Generated_Source\PSoC4/ADC_SAR_Seq.c ****     }
 963              		.loc 1 779 0
 964              		@ sp needed
 965 004e 38BD     		pop	{r3, r4, r5, pc}
 966              	.L80:
 967              		.align	2
 968              	.L79:
 969 0050 00000000 		.word	ADC_SAR_Seq_offset
 970 0054 10270000 		.word	10000
 971 0058 00000000 		.word	ADC_SAR_Seq_countsPer10Volt
 972              		.cfi_endproc
 973              	.LFE16:
 974              		.size	ADC_SAR_Seq_CountsTo_mVolts, .-ADC_SAR_Seq_CountsTo_mVolts
ARM GAS  C:\Users\ELISHA~1\AppData\Local\Temp\ccPvIcbh.s 			page 32


 975              		.global	__aeabi_lmul
 976              		.global	__aeabi_ldivmod
 977              		.section	.text.ADC_SAR_Seq_CountsTo_uVolts,"ax",%progbits
 978              		.align	2
 979              		.global	ADC_SAR_Seq_CountsTo_uVolts
 980              		.code	16
 981              		.thumb_func
 982              		.type	ADC_SAR_Seq_CountsTo_uVolts, %function
 983              	ADC_SAR_Seq_CountsTo_uVolts:
 984              	.LFB17:
 780:.\Generated_Source\PSoC4/ADC_SAR_Seq.c **** 
 781:.\Generated_Source\PSoC4/ADC_SAR_Seq.c **** 
 782:.\Generated_Source\PSoC4/ADC_SAR_Seq.c ****     /*******************************************************************************
 783:.\Generated_Source\PSoC4/ADC_SAR_Seq.c ****     * Function Name: ADC_SAR_Seq_CountsTo_uVolts
 784:.\Generated_Source\PSoC4/ADC_SAR_Seq.c ****     ********************************************************************************
 785:.\Generated_Source\PSoC4/ADC_SAR_Seq.c ****     *
 786:.\Generated_Source\PSoC4/ADC_SAR_Seq.c ****     * Summary:
 787:.\Generated_Source\PSoC4/ADC_SAR_Seq.c ****     *  This function converts ADC counts to micro Volts
 788:.\Generated_Source\PSoC4/ADC_SAR_Seq.c ****     *  This function is not available when left data format justification selected.
 789:.\Generated_Source\PSoC4/ADC_SAR_Seq.c ****     *
 790:.\Generated_Source\PSoC4/ADC_SAR_Seq.c ****     * Parameters:
 791:.\Generated_Source\PSoC4/ADC_SAR_Seq.c ****     *  chan: The ADC channel number.
 792:.\Generated_Source\PSoC4/ADC_SAR_Seq.c ****     *  adcCounts: Result from the ADC conversion
 793:.\Generated_Source\PSoC4/ADC_SAR_Seq.c ****     *
 794:.\Generated_Source\PSoC4/ADC_SAR_Seq.c ****     * Return:
 795:.\Generated_Source\PSoC4/ADC_SAR_Seq.c ****     *  Results in uVolts
 796:.\Generated_Source\PSoC4/ADC_SAR_Seq.c ****     *
 797:.\Generated_Source\PSoC4/ADC_SAR_Seq.c ****     * Global variables:
 798:.\Generated_Source\PSoC4/ADC_SAR_Seq.c ****     *  ADC_SAR_Seq_countsPer10Volt:  used to convert ADC counts to uVolts.
 799:.\Generated_Source\PSoC4/ADC_SAR_Seq.c ****     *  ADC_SAR_Seq_Offset:  Used as the offset while converting ADC counts
 800:.\Generated_Source\PSoC4/ADC_SAR_Seq.c ****     *   to mVolts.
 801:.\Generated_Source\PSoC4/ADC_SAR_Seq.c ****     *
 802:.\Generated_Source\PSoC4/ADC_SAR_Seq.c ****     * Theory:
 803:.\Generated_Source\PSoC4/ADC_SAR_Seq.c ****     *  Care must be taken to not exceed the maximum value for a 31 bit signed
 804:.\Generated_Source\PSoC4/ADC_SAR_Seq.c ****     *  number in the conversion to uVolts and at the same time not loose
 805:.\Generated_Source\PSoC4/ADC_SAR_Seq.c ****     *  resolution.
 806:.\Generated_Source\PSoC4/ADC_SAR_Seq.c ****     *  To convert adcCounts to microVolts it is required to be multiplied
 807:.\Generated_Source\PSoC4/ADC_SAR_Seq.c ****     *  on 10 million and later divide on gain in counts per 10V.
 808:.\Generated_Source\PSoC4/ADC_SAR_Seq.c ****     *
 809:.\Generated_Source\PSoC4/ADC_SAR_Seq.c ****     *******************************************************************************/
 810:.\Generated_Source\PSoC4/ADC_SAR_Seq.c ****     int32 ADC_SAR_Seq_CountsTo_uVolts(uint32 chan, int16 adcCounts)
 811:.\Generated_Source\PSoC4/ADC_SAR_Seq.c ****     {
 985              		.loc 1 811 0
 986              		.cfi_startproc
 987              	.LVL72:
 988 0000 38B5     		push	{r3, r4, r5, lr}
 989              		.cfi_def_cfa_offset 16
 990              		.cfi_offset 3, -16
 991              		.cfi_offset 4, -12
 992              		.cfi_offset 5, -8
 993              		.cfi_offset 14, -4
 994 0002 051C     		mov	r5, r0
 995 0004 0C1C     		mov	r4, r1
 812:.\Generated_Source\PSoC4/ADC_SAR_Seq.c ****         int64 uVolts;
 813:.\Generated_Source\PSoC4/ADC_SAR_Seq.c **** 
 814:.\Generated_Source\PSoC4/ADC_SAR_Seq.c ****         /* Halt CPU in debug mode if channel is out of valid range */
 815:.\Generated_Source\PSoC4/ADC_SAR_Seq.c ****         CYASSERT(chan < ADC_SAR_Seq_TOTAL_CHANNELS_NUM);
ARM GAS  C:\Users\ELISHA~1\AppData\Local\Temp\ccPvIcbh.s 			page 33


 996              		.loc 1 815 0
 997 0006 0128     		cmp	r0, #1
 998 0008 02D9     		bls	.L82
 999              		.loc 1 815 0 is_stmt 0 discriminator 1
 1000 000a 0020     		mov	r0, #0
 1001              	.LVL73:
 1002 000c FFF7FEFF 		bl	CyHalt
 1003              	.LVL74:
 1004              	.L82:
 816:.\Generated_Source\PSoC4/ADC_SAR_Seq.c **** 
 817:.\Generated_Source\PSoC4/ADC_SAR_Seq.c ****         /* Divide the adcCount when accumulate averaging mode selected */
 818:.\Generated_Source\PSoC4/ADC_SAR_Seq.c ****         #if(ADC_SAR_Seq_DEFAULT_AVG_MODE == ADC_SAR_Seq__ACCUMULATE)
 819:.\Generated_Source\PSoC4/ADC_SAR_Seq.c ****             if((ADC_SAR_Seq_channelsConfig[chan] & ADC_SAR_Seq_AVERAGING_EN) != 0u)
 820:.\Generated_Source\PSoC4/ADC_SAR_Seq.c ****             {
 821:.\Generated_Source\PSoC4/ADC_SAR_Seq.c ****                 adcCounts /= ADC_SAR_Seq_DEFAULT_AVG_SAMPLES_DIV;
 822:.\Generated_Source\PSoC4/ADC_SAR_Seq.c ****             }
 823:.\Generated_Source\PSoC4/ADC_SAR_Seq.c ****         #endif /* ADC_SAR_Seq_DEFAULT_AVG_MODE == ADC_SAR_Seq__ACCUMULATE */
 824:.\Generated_Source\PSoC4/ADC_SAR_Seq.c **** 
 825:.\Generated_Source\PSoC4/ADC_SAR_Seq.c ****         /* Subtract ADC offset */
 826:.\Generated_Source\PSoC4/ADC_SAR_Seq.c ****         adcCounts -= ADC_SAR_Seq_offset[chan];
 1005              		.loc 1 826 0 is_stmt 1
 1006 0010 6A00     		lsl	r2, r5, #1
 1007 0012 084B     		ldr	r3, .L83
 1008 0014 D05A     		ldrh	r0, [r2, r3]
 1009 0016 201A     		sub	r0, r4, r0
 1010 0018 00B2     		sxth	r0, r0
 1011              	.LVL75:
 827:.\Generated_Source\PSoC4/ADC_SAR_Seq.c **** 
 828:.\Generated_Source\PSoC4/ADC_SAR_Seq.c ****         uVolts = ((int64)adcCounts * ADC_SAR_Seq_10UV_COUNTS) / ADC_SAR_Seq_countsPer10Volt[chan];
 1012              		.loc 1 828 0
 1013 001a C117     		asr	r1, r0, #31
 1014 001c 064A     		ldr	r2, .L83+4
 1015 001e 0023     		mov	r3, #0
 1016 0020 FFF7FEFF 		bl	__aeabi_lmul
 1017              	.LVL76:
 1018 0024 AD00     		lsl	r5, r5, #2
 1019              	.LVL77:
 1020 0026 054B     		ldr	r3, .L83+8
 1021 0028 EA58     		ldr	r2, [r5, r3]
 1022 002a D317     		asr	r3, r2, #31
 1023 002c FFF7FEFF 		bl	__aeabi_ldivmod
 1024              	.LVL78:
 829:.\Generated_Source\PSoC4/ADC_SAR_Seq.c **** 
 830:.\Generated_Source\PSoC4/ADC_SAR_Seq.c ****         return( (int32)uVolts );
 831:.\Generated_Source\PSoC4/ADC_SAR_Seq.c ****     }
 1025              		.loc 1 831 0
 1026              		@ sp needed
 1027 0030 38BD     		pop	{r3, r4, r5, pc}
 1028              	.L84:
 1029 0032 C046     		.align	2
 1030              	.L83:
 1031 0034 00000000 		.word	ADC_SAR_Seq_offset
 1032 0038 80969800 		.word	10000000
 1033 003c 00000000 		.word	ADC_SAR_Seq_countsPer10Volt
 1034              		.cfi_endproc
 1035              	.LFE17:
 1036              		.size	ADC_SAR_Seq_CountsTo_uVolts, .-ADC_SAR_Seq_CountsTo_uVolts
ARM GAS  C:\Users\ELISHA~1\AppData\Local\Temp\ccPvIcbh.s 			page 34


 1037              		.global	__aeabi_i2f
 1038              		.global	__aeabi_fmul
 1039              		.global	__aeabi_fdiv
 1040              		.section	.text.ADC_SAR_Seq_CountsTo_Volts,"ax",%progbits
 1041              		.align	2
 1042              		.global	ADC_SAR_Seq_CountsTo_Volts
 1043              		.code	16
 1044              		.thumb_func
 1045              		.type	ADC_SAR_Seq_CountsTo_Volts, %function
 1046              	ADC_SAR_Seq_CountsTo_Volts:
 1047              	.LFB18:
 832:.\Generated_Source\PSoC4/ADC_SAR_Seq.c **** 
 833:.\Generated_Source\PSoC4/ADC_SAR_Seq.c **** 
 834:.\Generated_Source\PSoC4/ADC_SAR_Seq.c ****     /*******************************************************************************
 835:.\Generated_Source\PSoC4/ADC_SAR_Seq.c ****     * Function Name: ADC_SAR_Seq_CountsTo_Volts
 836:.\Generated_Source\PSoC4/ADC_SAR_Seq.c ****     ********************************************************************************
 837:.\Generated_Source\PSoC4/ADC_SAR_Seq.c ****     *
 838:.\Generated_Source\PSoC4/ADC_SAR_Seq.c ****     * Summary:
 839:.\Generated_Source\PSoC4/ADC_SAR_Seq.c ****     *  Converts the ADC output to Volts as a floating point number.
 840:.\Generated_Source\PSoC4/ADC_SAR_Seq.c ****     *  This function is not available when left data format justification selected.
 841:.\Generated_Source\PSoC4/ADC_SAR_Seq.c ****     *
 842:.\Generated_Source\PSoC4/ADC_SAR_Seq.c ****     * Parameters:
 843:.\Generated_Source\PSoC4/ADC_SAR_Seq.c ****     *  chan: The ADC channel number.
 844:.\Generated_Source\PSoC4/ADC_SAR_Seq.c ****     *  Result from the ADC conversion
 845:.\Generated_Source\PSoC4/ADC_SAR_Seq.c ****     *
 846:.\Generated_Source\PSoC4/ADC_SAR_Seq.c ****     * Return:
 847:.\Generated_Source\PSoC4/ADC_SAR_Seq.c ****     *  Results in Volts
 848:.\Generated_Source\PSoC4/ADC_SAR_Seq.c ****     *
 849:.\Generated_Source\PSoC4/ADC_SAR_Seq.c ****     * Global variables:
 850:.\Generated_Source\PSoC4/ADC_SAR_Seq.c ****     *  ADC_SAR_Seq_countsPer10Volt:  used to convert ADC counts to Volts.
 851:.\Generated_Source\PSoC4/ADC_SAR_Seq.c ****     *  ADC_SAR_Seq_Offset:  Used as the offset while converting ADC counts
 852:.\Generated_Source\PSoC4/ADC_SAR_Seq.c ****     *   to mVolts.
 853:.\Generated_Source\PSoC4/ADC_SAR_Seq.c ****     *
 854:.\Generated_Source\PSoC4/ADC_SAR_Seq.c ****     *******************************************************************************/
 855:.\Generated_Source\PSoC4/ADC_SAR_Seq.c ****     float32 ADC_SAR_Seq_CountsTo_Volts(uint32 chan, int16 adcCounts)
 856:.\Generated_Source\PSoC4/ADC_SAR_Seq.c ****     {
 1048              		.loc 1 856 0
 1049              		.cfi_startproc
 1050              	.LVL79:
 1051 0000 38B5     		push	{r3, r4, r5, lr}
 1052              		.cfi_def_cfa_offset 16
 1053              		.cfi_offset 3, -16
 1054              		.cfi_offset 4, -12
 1055              		.cfi_offset 5, -8
 1056              		.cfi_offset 14, -4
 1057 0002 041C     		mov	r4, r0
 1058 0004 0D1C     		mov	r5, r1
 857:.\Generated_Source\PSoC4/ADC_SAR_Seq.c ****         float32 volts;
 858:.\Generated_Source\PSoC4/ADC_SAR_Seq.c **** 
 859:.\Generated_Source\PSoC4/ADC_SAR_Seq.c ****         /* Halt CPU in debug mode if channel is out of valid range */
 860:.\Generated_Source\PSoC4/ADC_SAR_Seq.c ****         CYASSERT(chan < ADC_SAR_Seq_TOTAL_CHANNELS_NUM);
 1059              		.loc 1 860 0
 1060 0006 0128     		cmp	r0, #1
 1061 0008 02D9     		bls	.L86
 1062              		.loc 1 860 0 is_stmt 0 discriminator 1
 1063 000a 0020     		mov	r0, #0
 1064              	.LVL80:
ARM GAS  C:\Users\ELISHA~1\AppData\Local\Temp\ccPvIcbh.s 			page 35


 1065 000c FFF7FEFF 		bl	CyHalt
 1066              	.LVL81:
 1067              	.L86:
 861:.\Generated_Source\PSoC4/ADC_SAR_Seq.c **** 
 862:.\Generated_Source\PSoC4/ADC_SAR_Seq.c ****         /* Divide the adcCount when accumulate averaging mode selected */
 863:.\Generated_Source\PSoC4/ADC_SAR_Seq.c ****         #if(ADC_SAR_Seq_DEFAULT_AVG_MODE == ADC_SAR_Seq__ACCUMULATE)
 864:.\Generated_Source\PSoC4/ADC_SAR_Seq.c ****             if((ADC_SAR_Seq_channelsConfig[chan] & ADC_SAR_Seq_AVERAGING_EN) != 0u)
 865:.\Generated_Source\PSoC4/ADC_SAR_Seq.c ****             {
 866:.\Generated_Source\PSoC4/ADC_SAR_Seq.c ****                 adcCounts /= ADC_SAR_Seq_DEFAULT_AVG_SAMPLES_DIV;
 867:.\Generated_Source\PSoC4/ADC_SAR_Seq.c ****             }
 868:.\Generated_Source\PSoC4/ADC_SAR_Seq.c ****         #endif /* ADC_SAR_Seq_DEFAULT_AVG_MODE == ADC_SAR_Seq__ACCUMULATE */
 869:.\Generated_Source\PSoC4/ADC_SAR_Seq.c **** 
 870:.\Generated_Source\PSoC4/ADC_SAR_Seq.c ****         /* Subtract ADC offset */
 871:.\Generated_Source\PSoC4/ADC_SAR_Seq.c ****         adcCounts -= ADC_SAR_Seq_offset[chan];
 1068              		.loc 1 871 0 is_stmt 1
 1069 0010 6200     		lsl	r2, r4, #1
 1070 0012 0A4B     		ldr	r3, .L87
 1071 0014 D05A     		ldrh	r0, [r2, r3]
 1072 0016 281A     		sub	r0, r5, r0
 1073 0018 00B2     		sxth	r0, r0
 1074              	.LVL82:
 872:.\Generated_Source\PSoC4/ADC_SAR_Seq.c **** 
 873:.\Generated_Source\PSoC4/ADC_SAR_Seq.c ****         volts = ((float32)adcCounts * ADC_SAR_Seq_10V_COUNTS) / (float32)ADC_SAR_Seq_countsPer10Vol
 1075              		.loc 1 873 0
 1076 001a FFF7FEFF 		bl	__aeabi_i2f
 1077              	.LVL83:
 1078 001e 0849     		ldr	r1, .L87+4
 1079 0020 FFF7FEFF 		bl	__aeabi_fmul
 1080              	.LVL84:
 1081 0024 051C     		add	r5, r0, #0
 1082 0026 A400     		lsl	r4, r4, #2
 1083              	.LVL85:
 1084 0028 064B     		ldr	r3, .L87+8
 1085 002a E058     		ldr	r0, [r4, r3]
 1086 002c FFF7FEFF 		bl	__aeabi_i2f
 1087              	.LVL86:
 1088 0030 011C     		add	r1, r0, #0
 1089 0032 281C     		add	r0, r5, #0
 1090 0034 FFF7FEFF 		bl	__aeabi_fdiv
 1091              	.LVL87:
 874:.\Generated_Source\PSoC4/ADC_SAR_Seq.c **** 
 875:.\Generated_Source\PSoC4/ADC_SAR_Seq.c ****         return( volts );
 876:.\Generated_Source\PSoC4/ADC_SAR_Seq.c ****     }
 1092              		.loc 1 876 0
 1093              		@ sp needed
 1094 0038 38BD     		pop	{r3, r4, r5, pc}
 1095              	.L88:
 1096 003a C046     		.align	2
 1097              	.L87:
 1098 003c 00000000 		.word	ADC_SAR_Seq_offset
 1099 0040 00002041 		.word	1092616192
 1100 0044 00000000 		.word	ADC_SAR_Seq_countsPer10Volt
 1101              		.cfi_endproc
 1102              	.LFE18:
 1103              		.size	ADC_SAR_Seq_CountsTo_Volts, .-ADC_SAR_Seq_CountsTo_Volts
 1104              		.comm	ADC_SAR_Seq_countsPer10Volt,8,4
 1105              		.comm	ADC_SAR_Seq_offset,4,4
ARM GAS  C:\Users\ELISHA~1\AppData\Local\Temp\ccPvIcbh.s 			page 36


 1106              		.global	ADC_SAR_Seq_initVar
 1107              		.section	.rodata
 1108              		.align	2
 1109              		.set	.LANCHOR0,. + 0
 1110              		.type	ADC_SAR_Seq_channelsConfig, %object
 1111              		.size	ADC_SAR_Seq_channelsConfig, 8
 1112              	ADC_SAR_Seq_channelsConfig:
 1113 0000 00040000 		.word	1024
 1114 0004 00040000 		.word	1024
 1115              		.type	ADC_SAR_Seq_InputsPlacement.4742, %object
 1116              		.size	ADC_SAR_Seq_InputsPlacement.4742, 2
 1117              	ADC_SAR_Seq_InputsPlacement.4742:
 1118 0008 73       		.byte	115
 1119 0009 70       		.byte	112
 1120 000a 0000     		.bss
 1121              		.set	.LANCHOR1,. + 0
 1122              		.type	ADC_SAR_Seq_initVar, %object
 1123              		.size	ADC_SAR_Seq_initVar, 1
 1124              	ADC_SAR_Seq_initVar:
 1125 0000 00       		.space	1
 1126              		.text
 1127              	.Letext0:
 1128              		.file 2 ".\\Generated_Source\\PSoC4\\cytypes.h"
 1129              		.file 3 ".\\Generated_Source\\PSoC4\\CyLib.h"