ARM GAS  C:\Users\ELISHA~1\AppData\Local\Temp\ccaYHmjt.s 			page 1


   1              		.cpu cortex-m0
   2              		.fpu softvfp
   3              		.eabi_attribute 20, 1
   4              		.eabi_attribute 21, 1
   5              		.eabi_attribute 23, 3
   6              		.eabi_attribute 24, 1
   7              		.eabi_attribute 25, 1
   8              		.eabi_attribute 26, 1
   9              		.eabi_attribute 30, 1
  10              		.eabi_attribute 34, 0
  11              		.eabi_attribute 18, 4
  12              		.code	16
  13              		.file	"main.c"
  14              		.text
  15              	.Ltext0:
  16              		.cfi_sections	.debug_frame
  17              		.section	.text.ADC_SAR_SEQ_ISR_LOC,"ax",%progbits
  18              		.align	2
  19              		.global	ADC_SAR_SEQ_ISR_LOC
  20              		.code	16
  21              		.thumb_func
  22              		.type	ADC_SAR_SEQ_ISR_LOC, %function
  23              	ADC_SAR_SEQ_ISR_LOC:
  24              	.LFB33:
  25              		.file 1 ".\\main.c"
   1:.\main.c      **** /* ========================================
   2:.\main.c      ****  *
   3:.\main.c      ****  * Copyright YOUR COMPANY, THE YEAR
   4:.\main.c      ****  * All Rights Reserved
   5:.\main.c      ****  * UNPUBLISHED, LICENSED SOFTWARE.
   6:.\main.c      ****  *
   7:.\main.c      ****  * CONFIDENTIAL AND PROPRIETARY INFORMATION
   8:.\main.c      ****  * WHICH IS THE PROPERTY OF your company.
   9:.\main.c      ****  *
  10:.\main.c      ****  * ========================================
  11:.\main.c      **** */
  12:.\main.c      **** #include <project.h>
  13:.\main.c      **** #include <ADC_SAR_Seq.h>
  14:.\main.c      **** 
  15:.\main.c      **** #define CH0_N       (0x00u)
  16:.\main.c      **** #define TEMP_CH     (0x01u)
  17:.\main.c      **** #define DELAY_1SEC  (1000u)
  18:.\main.c      **** 
  19:.\main.c      **** /* Get actual Vref. value from ADC SAR sequencer */
  20:.\main.c      **** #define ADC_VREF_VALUE_V ((float)ADC_SAR_Seq_DEFAULT_VREF_MV_VALUE/1000.0)
  21:.\main.c      **** 
  22:.\main.c      **** 
  23:.\main.c      **** volatile uint32 dataReady = 0u;
  24:.\main.c      **** volatile int16 result[ADC_SAR_Seq_TOTAL_CHANNELS_NUM];
  25:.\main.c      **** volatile uint32 timer_delay = 0u;
  26:.\main.c      **** 
  27:.\main.c      **** /******************************************************************************
  28:.\main.c      **** * Function Name: ADC_SAR_SEQ_ISR_LOC
  29:.\main.c      **** *******************************************************************************
  30:.\main.c      **** *
  31:.\main.c      **** * Summary:
  32:.\main.c      **** *  Handle Interrupt Service Routine. Source - ADC SAR Seq.
ARM GAS  C:\Users\ELISHA~1\AppData\Local\Temp\ccaYHmjt.s 			page 2


  33:.\main.c      **** *
  34:.\main.c      **** ******************************************************************************/
  35:.\main.c      **** CY_ISR(ADC_SAR_SEQ_ISR_LOC)
  36:.\main.c      **** {
  26              		.loc 1 36 0
  27              		.cfi_startproc
  28 0000 10B5     		push	{r4, lr}
  29              		.cfi_def_cfa_offset 8
  30              		.cfi_offset 4, -8
  31              		.cfi_offset 14, -4
  37:.\main.c      ****     uint32 intr_status;
  38:.\main.c      ****     int32 temperature;
  39:.\main.c      ****     
  40:.\main.c      ****     //Read Interrupt Status registers
  41:.\main.c      ****     intr_status = ADC_SAR_Seq_SAR_INTR_MASKED_REG;
  32              		.loc 1 41 0
  33 0002 084B     		ldr	r3, .L3
  34 0004 1C68     		ldr	r4, [r3]
  35              	.LVL0:
  42:.\main.c      ****     //Check for Injection End of Conversion
  43:.\main.c      ****     if((intr_status & ADC_SAR_Seq_INJ_EOC_MASK) != 0u)
  36              		.loc 1 43 0
  37 0006 E306     		lsl	r3, r4, #27
  38 0008 09D5     		bpl	.L2
  44:.\main.c      ****     {
  45:.\main.c      ****         result[TEMP_CH] = ADC_SAR_Seq_GetResult16(TEMP_CH);
  39              		.loc 1 45 0
  40 000a 0120     		mov	r0, #1
  41 000c FFF7FEFF 		bl	ADC_SAR_Seq_GetResult16
  42              	.LVL1:
  43 0010 054B     		ldr	r3, .L3+4
  44 0012 5880     		strh	r0, [r3, #2]
  46:.\main.c      ****         dataReady |= ADC_SAR_Seq_INJ_EOC_MASK;
  45              		.loc 1 46 0
  46 0014 054A     		ldr	r2, .L3+8
  47 0016 1168     		ldr	r1, [r2]
  48 0018 1023     		mov	r3, #16
  49 001a 0B43     		orr	r3, r1
  50 001c 1360     		str	r3, [r2]
  51              	.L2:
  47:.\main.c      ****     }
  48:.\main.c      ****     //Clear handled interrupt
  49:.\main.c      ****     ADC_SAR_Seq_SAR_INTR_REG = intr_status;
  52              		.loc 1 49 0
  53 001e 044B     		ldr	r3, .L3+12
  54 0020 1C60     		str	r4, [r3]
  50:.\main.c      **** }
  55              		.loc 1 50 0
  56              		@ sp needed
  57              	.LVL2:
  58 0022 10BD     		pop	{r4, pc}
  59              	.L4:
  60              		.align	2
  61              	.L3:
  62 0024 1C021A40 		.word	1075446300
  63 0028 00000000 		.word	result
  64 002c 00000000 		.word	.LANCHOR0
ARM GAS  C:\Users\ELISHA~1\AppData\Local\Temp\ccaYHmjt.s 			page 3


  65 0030 10021A40 		.word	1075446288
  66              		.cfi_endproc
  67              	.LFE33:
  68              		.size	ADC_SAR_SEQ_ISR_LOC, .-ADC_SAR_SEQ_ISR_LOC
  69              		.section	.text.main,"ax",%progbits
  70              		.align	2
  71              		.global	main
  72              		.code	16
  73              		.thumb_func
  74              		.type	main, %function
  75              	main:
  76              	.LFB34:
  51:.\main.c      **** 
  52:.\main.c      **** 
  53:.\main.c      **** int main()
  54:.\main.c      **** {
  77              		.loc 1 54 0
  78              		.cfi_startproc
  79 0000 08B5     		push	{r3, lr}
  80              		.cfi_def_cfa_offset 8
  81              		.cfi_offset 3, -8
  82              		.cfi_offset 14, -4
  55:.\main.c      ****     int16 ADCCountsCorrected;
  56:.\main.c      ****     int32 temperature;
  57:.\main.c      ****     
  58:.\main.c      ****     /* Place your initialization/startup code here (e.g. MyInst_Start()) */
  59:.\main.c      ****     //Init and start sequencing SAR ADC
  60:.\main.c      ****     ADC_SAR_Seq_Start();
  83              		.loc 1 60 0
  84 0002 FFF7FEFF 		bl	ADC_SAR_Seq_Start
  85              	.LVL3:
  61:.\main.c      ****     ADC_SAR_Seq_StartConvert();
  86              		.loc 1 61 0
  87 0006 FFF7FEFF 		bl	ADC_SAR_Seq_StartConvert
  88              	.LVL4:
  62:.\main.c      ****     //Enable interrupt and set interrupt handler to local routine
  63:.\main.c      ****     ADC_SAR_Seq_IRQ_StartEx(ADC_SAR_SEQ_ISR_LOC);
  89              		.loc 1 63 0
  90 000a 0A48     		ldr	r0, .L8
  91 000c FFF7FEFF 		bl	ADC_SAR_Seq_IRQ_StartEx
  92              	.LVL5:
  64:.\main.c      ****     CyGlobalIntEnable; /* Enable global interrupts. */
  93              		.loc 1 64 0
  94              	@ 64 ".\main.c" 1
  95 0010 62B6     		CPSIE   i
  96              	@ 0 "" 2
  97              		.code	16
  98              	.L6:
  65:.\main.c      ****     
  66:.\main.c      ****     for(;;)
  67:.\main.c      ****     {
  68:.\main.c      ****         /* Place your application code here. */
  69:.\main.c      ****         //For every 1 second, enable injection channel for next scan
  70:.\main.c      ****         ADC_SAR_Seq_EnableInjection();
  99              		.loc 1 70 0
 100 0012 FFF7FEFF 		bl	ADC_SAR_Seq_EnableInjection
 101              	.LVL6:
ARM GAS  C:\Users\ELISHA~1\AppData\Local\Temp\ccaYHmjt.s 			page 4


  71:.\main.c      ****         
  72:.\main.c      ****         //When conversion of the injection channel has completed
  73:.\main.c      ****         if((dataReady & ADC_SAR_Seq_INJ_EOC_MASK) != 0u)
 102              		.loc 1 73 0
 103 0016 084B     		ldr	r3, .L8+4
 104 0018 1B68     		ldr	r3, [r3]
 105 001a DB06     		lsl	r3, r3, #27
 106 001c F9D5     		bpl	.L6
  74:.\main.c      ****         {
  75:.\main.c      ****             dataReady &= ~ADC_SAR_Seq_INJ_EOC_MASK;
 107              		.loc 1 75 0
 108 001e 064A     		ldr	r2, .L8+4
 109 0020 1368     		ldr	r3, [r2]
 110 0022 1021     		mov	r1, #16
 111 0024 8B43     		bic	r3, r1
 112 0026 1360     		str	r3, [r2]
  76:.\main.c      ****             //Adjust data from ADC with resepct to Vref value.
  77:.\main.c      ****             //Do this adjustment if Vref is set to any other than internal 1.024V
  78:.\main.c      ****             ADCCountsCorrected = result[TEMP_CH]*((int16)((float)ADC_VREF_VALUE_V/1.024));
 113              		.loc 1 78 0
 114 0028 044B     		ldr	r3, .L8+8
 115 002a 5888     		ldrh	r0, [r3, #2]
 116              	.LVL7:
  79:.\main.c      ****             
  80:.\main.c      ****             temperature = DieTemp_CountsTo_Celsius(ADCCountsCorrected);
 117              		.loc 1 80 0
 118 002c 00B2     		sxth	r0, r0
 119 002e FFF7FEFF 		bl	DieTemp_CountsTo_Celsius
 120              	.LVL8:
 121 0032 EEE7     		b	.L6
 122              	.L9:
 123              		.align	2
 124              	.L8:
 125 0034 00000000 		.word	ADC_SAR_SEQ_ISR_LOC
 126 0038 00000000 		.word	.LANCHOR0
 127 003c 00000000 		.word	result
 128              		.cfi_endproc
 129              	.LFE34:
 130              		.size	main, .-main
 131              		.global	timer_delay
 132              		.comm	result,4,4
 133              		.global	dataReady
 134              		.bss
 135              		.align	2
 136              		.set	.LANCHOR0,. + 0
 137              		.type	dataReady, %object
 138              		.size	dataReady, 4
 139              	dataReady:
 140 0000 00000000 		.space	4
 141              		.type	timer_delay, %object
 142              		.size	timer_delay, 4
 143              	timer_delay:
 144 0004 00000000 		.space	4
 145              		.text
 146              	.Letext0:
 147              		.file 2 "Generated_Source\\PSoC4/cytypes.h"
 148              		.file 3 "Generated_Source\\PSoC4/ADC_SAR_Seq.h"
ARM GAS  C:\Users\ELISHA~1\AppData\Local\Temp\ccaYHmjt.s 			page 5


 149              		.file 4 "Generated_Source\\PSoC4/ADC_SAR_Seq_IRQ.h"
 150              		.file 5 "Generated_Source\\PSoC4/DieTemp.h"