ARM GAS  C:\Users\ELISHA~1\AppData\Local\Temp\cchyKk7c.s 			page 1


   1              		.cpu cortex-m0
   2              		.fpu softvfp
   3              		.eabi_attribute 20, 1
   4              		.eabi_attribute 21, 1
   5              		.eabi_attribute 23, 3
   6              		.eabi_attribute 24, 1
   7              		.eabi_attribute 25, 1
   8              		.eabi_attribute 26, 1
   9              		.eabi_attribute 30, 6
  10              		.eabi_attribute 34, 0
  11              		.eabi_attribute 18, 4
  12              		.code	16
  13              		.file	"ISR_TIMER.c"
  14              		.text
  15              	.Ltext0:
  16              		.cfi_sections	.debug_frame
  17              		.section	.text.ISR_TIMER_Start,"ax",%progbits
  18              		.align	2
  19              		.global	ISR_TIMER_Start
  20              		.code	16
  21              		.thumb_func
  22              		.type	ISR_TIMER_Start, %function
  23              	ISR_TIMER_Start:
  24              	.LFB0:
  25              		.file 1 ".\\Generated_Source\\PSoC4\\ISR_TIMER.c"
   1:.\Generated_Source\PSoC4/ISR_TIMER.c **** /*******************************************************************************
   2:.\Generated_Source\PSoC4/ISR_TIMER.c **** * File Name: ISR_TIMER.c  
   3:.\Generated_Source\PSoC4/ISR_TIMER.c **** * Version 1.70
   4:.\Generated_Source\PSoC4/ISR_TIMER.c **** *
   5:.\Generated_Source\PSoC4/ISR_TIMER.c **** *  Description:
   6:.\Generated_Source\PSoC4/ISR_TIMER.c **** *   API for controlling the state of an interrupt.
   7:.\Generated_Source\PSoC4/ISR_TIMER.c **** *
   8:.\Generated_Source\PSoC4/ISR_TIMER.c **** *
   9:.\Generated_Source\PSoC4/ISR_TIMER.c **** *  Note:
  10:.\Generated_Source\PSoC4/ISR_TIMER.c **** *
  11:.\Generated_Source\PSoC4/ISR_TIMER.c **** ********************************************************************************
  12:.\Generated_Source\PSoC4/ISR_TIMER.c **** * Copyright 2008-2015, Cypress Semiconductor Corporation.  All rights reserved.
  13:.\Generated_Source\PSoC4/ISR_TIMER.c **** * You may use this file only in accordance with the license, terms, conditions, 
  14:.\Generated_Source\PSoC4/ISR_TIMER.c **** * disclaimers, and limitations in the end user license agreement accompanying 
  15:.\Generated_Source\PSoC4/ISR_TIMER.c **** * the software package with which this file was provided.
  16:.\Generated_Source\PSoC4/ISR_TIMER.c **** *******************************************************************************/
  17:.\Generated_Source\PSoC4/ISR_TIMER.c **** 
  18:.\Generated_Source\PSoC4/ISR_TIMER.c **** 
  19:.\Generated_Source\PSoC4/ISR_TIMER.c **** #include <cydevice_trm.h>
  20:.\Generated_Source\PSoC4/ISR_TIMER.c **** #include <CyLib.h>
  21:.\Generated_Source\PSoC4/ISR_TIMER.c **** #include <ISR_TIMER.h>
  22:.\Generated_Source\PSoC4/ISR_TIMER.c **** #include "cyapicallbacks.h"
  23:.\Generated_Source\PSoC4/ISR_TIMER.c **** 
  24:.\Generated_Source\PSoC4/ISR_TIMER.c **** #if !defined(ISR_TIMER__REMOVED) /* Check for removal by optimization */
  25:.\Generated_Source\PSoC4/ISR_TIMER.c **** 
  26:.\Generated_Source\PSoC4/ISR_TIMER.c **** /*******************************************************************************
  27:.\Generated_Source\PSoC4/ISR_TIMER.c **** *  Place your includes, defines and code here 
  28:.\Generated_Source\PSoC4/ISR_TIMER.c **** ********************************************************************************/
  29:.\Generated_Source\PSoC4/ISR_TIMER.c **** /* `#START ISR_TIMER_intc` */
  30:.\Generated_Source\PSoC4/ISR_TIMER.c **** 
  31:.\Generated_Source\PSoC4/ISR_TIMER.c **** /* `#END` */
  32:.\Generated_Source\PSoC4/ISR_TIMER.c **** 
ARM GAS  C:\Users\ELISHA~1\AppData\Local\Temp\cchyKk7c.s 			page 2


  33:.\Generated_Source\PSoC4/ISR_TIMER.c **** extern cyisraddress CyRamVectors[CYINT_IRQ_BASE + CY_NUM_INTERRUPTS];
  34:.\Generated_Source\PSoC4/ISR_TIMER.c **** 
  35:.\Generated_Source\PSoC4/ISR_TIMER.c **** /* Declared in startup, used to set unused interrupts to. */
  36:.\Generated_Source\PSoC4/ISR_TIMER.c **** CY_ISR_PROTO(IntDefaultHandler);
  37:.\Generated_Source\PSoC4/ISR_TIMER.c **** 
  38:.\Generated_Source\PSoC4/ISR_TIMER.c **** 
  39:.\Generated_Source\PSoC4/ISR_TIMER.c **** /*******************************************************************************
  40:.\Generated_Source\PSoC4/ISR_TIMER.c **** * Function Name: ISR_TIMER_Start
  41:.\Generated_Source\PSoC4/ISR_TIMER.c **** ********************************************************************************
  42:.\Generated_Source\PSoC4/ISR_TIMER.c **** *
  43:.\Generated_Source\PSoC4/ISR_TIMER.c **** * Summary:
  44:.\Generated_Source\PSoC4/ISR_TIMER.c **** *  Set up the interrupt and enable it. This function disables the interrupt, 
  45:.\Generated_Source\PSoC4/ISR_TIMER.c **** *  sets the default interrupt vector, sets the priority from the value in the
  46:.\Generated_Source\PSoC4/ISR_TIMER.c **** *  Design Wide Resources Interrupt Editor, then enables the interrupt to the 
  47:.\Generated_Source\PSoC4/ISR_TIMER.c **** *  interrupt controller.
  48:.\Generated_Source\PSoC4/ISR_TIMER.c **** *
  49:.\Generated_Source\PSoC4/ISR_TIMER.c **** * Parameters:  
  50:.\Generated_Source\PSoC4/ISR_TIMER.c **** *   None
  51:.\Generated_Source\PSoC4/ISR_TIMER.c **** *
  52:.\Generated_Source\PSoC4/ISR_TIMER.c **** * Return:
  53:.\Generated_Source\PSoC4/ISR_TIMER.c **** *   None
  54:.\Generated_Source\PSoC4/ISR_TIMER.c **** *
  55:.\Generated_Source\PSoC4/ISR_TIMER.c **** *******************************************************************************/
  56:.\Generated_Source\PSoC4/ISR_TIMER.c **** void ISR_TIMER_Start(void)
  57:.\Generated_Source\PSoC4/ISR_TIMER.c **** {
  26              		.loc 1 57 0
  27              		.cfi_startproc
  28 0000 80B5     		push	{r7, lr}
  29              		.cfi_def_cfa_offset 8
  30              		.cfi_offset 7, -8
  31              		.cfi_offset 14, -4
  32 0002 00AF     		add	r7, sp, #0
  33              		.cfi_def_cfa_register 7
  58:.\Generated_Source\PSoC4/ISR_TIMER.c ****     /* For all we know the interrupt is active. */
  59:.\Generated_Source\PSoC4/ISR_TIMER.c ****     ISR_TIMER_Disable();
  34              		.loc 1 59 0
  35 0004 FFF7FEFF 		bl	ISR_TIMER_Disable
  60:.\Generated_Source\PSoC4/ISR_TIMER.c **** 
  61:.\Generated_Source\PSoC4/ISR_TIMER.c ****     /* Set the ISR to point to the ISR_TIMER Interrupt. */
  62:.\Generated_Source\PSoC4/ISR_TIMER.c ****     ISR_TIMER_SetVector(&ISR_TIMER_Interrupt);
  36              		.loc 1 62 0
  37 0008 054B     		ldr	r3, .L2
  38 000a 181C     		mov	r0, r3
  39 000c FFF7FEFF 		bl	ISR_TIMER_SetVector
  63:.\Generated_Source\PSoC4/ISR_TIMER.c **** 
  64:.\Generated_Source\PSoC4/ISR_TIMER.c ****     /* Set the priority. */
  65:.\Generated_Source\PSoC4/ISR_TIMER.c ****     ISR_TIMER_SetPriority((uint8)ISR_TIMER_INTC_PRIOR_NUMBER);
  40              		.loc 1 65 0
  41 0010 0320     		mov	r0, #3
  42 0012 FFF7FEFF 		bl	ISR_TIMER_SetPriority
  66:.\Generated_Source\PSoC4/ISR_TIMER.c **** 
  67:.\Generated_Source\PSoC4/ISR_TIMER.c ****     /* Enable it. */
  68:.\Generated_Source\PSoC4/ISR_TIMER.c ****     ISR_TIMER_Enable();
  43              		.loc 1 68 0
  44 0016 FFF7FEFF 		bl	ISR_TIMER_Enable
  69:.\Generated_Source\PSoC4/ISR_TIMER.c **** }
  45              		.loc 1 69 0
ARM GAS  C:\Users\ELISHA~1\AppData\Local\Temp\cchyKk7c.s 			page 3


  46 001a BD46     		mov	sp, r7
  47              		@ sp needed
  48 001c 80BD     		pop	{r7, pc}
  49              	.L3:
  50 001e C046     		.align	2
  51              	.L2:
  52 0020 00000000 		.word	ISR_TIMER_Interrupt
  53              		.cfi_endproc
  54              	.LFE0:
  55              		.size	ISR_TIMER_Start, .-ISR_TIMER_Start
  56              		.section	.text.ISR_TIMER_StartEx,"ax",%progbits
  57              		.align	2
  58              		.global	ISR_TIMER_StartEx
  59              		.code	16
  60              		.thumb_func
  61              		.type	ISR_TIMER_StartEx, %function
  62              	ISR_TIMER_StartEx:
  63              	.LFB1:
  70:.\Generated_Source\PSoC4/ISR_TIMER.c **** 
  71:.\Generated_Source\PSoC4/ISR_TIMER.c **** 
  72:.\Generated_Source\PSoC4/ISR_TIMER.c **** /*******************************************************************************
  73:.\Generated_Source\PSoC4/ISR_TIMER.c **** * Function Name: ISR_TIMER_StartEx
  74:.\Generated_Source\PSoC4/ISR_TIMER.c **** ********************************************************************************
  75:.\Generated_Source\PSoC4/ISR_TIMER.c **** *
  76:.\Generated_Source\PSoC4/ISR_TIMER.c **** * Summary:
  77:.\Generated_Source\PSoC4/ISR_TIMER.c **** *  Sets up the interrupt and enables it. This function disables the interrupt,
  78:.\Generated_Source\PSoC4/ISR_TIMER.c **** *  sets the interrupt vector based on the address passed in, sets the priority 
  79:.\Generated_Source\PSoC4/ISR_TIMER.c **** *  from the value in the Design Wide Resources Interrupt Editor, then enables 
  80:.\Generated_Source\PSoC4/ISR_TIMER.c **** *  the interrupt to the interrupt controller.
  81:.\Generated_Source\PSoC4/ISR_TIMER.c **** *  
  82:.\Generated_Source\PSoC4/ISR_TIMER.c **** *  When defining ISR functions, the CY_ISR and CY_ISR_PROTO macros should be 
  83:.\Generated_Source\PSoC4/ISR_TIMER.c **** *  used to provide consistent definition across compilers:
  84:.\Generated_Source\PSoC4/ISR_TIMER.c **** *  
  85:.\Generated_Source\PSoC4/ISR_TIMER.c **** *  Function definition example:
  86:.\Generated_Source\PSoC4/ISR_TIMER.c **** *   CY_ISR(MyISR)
  87:.\Generated_Source\PSoC4/ISR_TIMER.c **** *   {
  88:.\Generated_Source\PSoC4/ISR_TIMER.c **** *   }
  89:.\Generated_Source\PSoC4/ISR_TIMER.c **** *   Function prototype example:
  90:.\Generated_Source\PSoC4/ISR_TIMER.c **** *   CY_ISR_PROTO(MyISR);
  91:.\Generated_Source\PSoC4/ISR_TIMER.c **** *
  92:.\Generated_Source\PSoC4/ISR_TIMER.c **** * Parameters:  
  93:.\Generated_Source\PSoC4/ISR_TIMER.c **** *   address: Address of the ISR to set in the interrupt vector table.
  94:.\Generated_Source\PSoC4/ISR_TIMER.c **** *
  95:.\Generated_Source\PSoC4/ISR_TIMER.c **** * Return:
  96:.\Generated_Source\PSoC4/ISR_TIMER.c **** *   None
  97:.\Generated_Source\PSoC4/ISR_TIMER.c **** *
  98:.\Generated_Source\PSoC4/ISR_TIMER.c **** *******************************************************************************/
  99:.\Generated_Source\PSoC4/ISR_TIMER.c **** void ISR_TIMER_StartEx(cyisraddress address)
 100:.\Generated_Source\PSoC4/ISR_TIMER.c **** {
  64              		.loc 1 100 0
  65              		.cfi_startproc
  66 0000 80B5     		push	{r7, lr}
  67              		.cfi_def_cfa_offset 8
  68              		.cfi_offset 7, -8
  69              		.cfi_offset 14, -4
  70 0002 82B0     		sub	sp, sp, #8
  71              		.cfi_def_cfa_offset 16
ARM GAS  C:\Users\ELISHA~1\AppData\Local\Temp\cchyKk7c.s 			page 4


  72 0004 00AF     		add	r7, sp, #0
  73              		.cfi_def_cfa_register 7
  74 0006 7860     		str	r0, [r7, #4]
 101:.\Generated_Source\PSoC4/ISR_TIMER.c ****     /* For all we know the interrupt is active. */
 102:.\Generated_Source\PSoC4/ISR_TIMER.c ****     ISR_TIMER_Disable();
  75              		.loc 1 102 0
  76 0008 FFF7FEFF 		bl	ISR_TIMER_Disable
 103:.\Generated_Source\PSoC4/ISR_TIMER.c **** 
 104:.\Generated_Source\PSoC4/ISR_TIMER.c ****     /* Set the ISR to point to the ISR_TIMER Interrupt. */
 105:.\Generated_Source\PSoC4/ISR_TIMER.c ****     ISR_TIMER_SetVector(address);
  77              		.loc 1 105 0
  78 000c 7B68     		ldr	r3, [r7, #4]
  79 000e 181C     		mov	r0, r3
  80 0010 FFF7FEFF 		bl	ISR_TIMER_SetVector
 106:.\Generated_Source\PSoC4/ISR_TIMER.c **** 
 107:.\Generated_Source\PSoC4/ISR_TIMER.c ****     /* Set the priority. */
 108:.\Generated_Source\PSoC4/ISR_TIMER.c ****     ISR_TIMER_SetPriority((uint8)ISR_TIMER_INTC_PRIOR_NUMBER);
  81              		.loc 1 108 0
  82 0014 0320     		mov	r0, #3
  83 0016 FFF7FEFF 		bl	ISR_TIMER_SetPriority
 109:.\Generated_Source\PSoC4/ISR_TIMER.c **** 
 110:.\Generated_Source\PSoC4/ISR_TIMER.c ****     /* Enable it. */
 111:.\Generated_Source\PSoC4/ISR_TIMER.c ****     ISR_TIMER_Enable();
  84              		.loc 1 111 0
  85 001a FFF7FEFF 		bl	ISR_TIMER_Enable
 112:.\Generated_Source\PSoC4/ISR_TIMER.c **** }
  86              		.loc 1 112 0
  87 001e BD46     		mov	sp, r7
  88 0020 02B0     		add	sp, sp, #8
  89              		@ sp needed
  90 0022 80BD     		pop	{r7, pc}
  91              		.cfi_endproc
  92              	.LFE1:
  93              		.size	ISR_TIMER_StartEx, .-ISR_TIMER_StartEx
  94              		.section	.text.ISR_TIMER_Stop,"ax",%progbits
  95              		.align	2
  96              		.global	ISR_TIMER_Stop
  97              		.code	16
  98              		.thumb_func
  99              		.type	ISR_TIMER_Stop, %function
 100              	ISR_TIMER_Stop:
 101              	.LFB2:
 113:.\Generated_Source\PSoC4/ISR_TIMER.c **** 
 114:.\Generated_Source\PSoC4/ISR_TIMER.c **** 
 115:.\Generated_Source\PSoC4/ISR_TIMER.c **** /*******************************************************************************
 116:.\Generated_Source\PSoC4/ISR_TIMER.c **** * Function Name: ISR_TIMER_Stop
 117:.\Generated_Source\PSoC4/ISR_TIMER.c **** ********************************************************************************
 118:.\Generated_Source\PSoC4/ISR_TIMER.c **** *
 119:.\Generated_Source\PSoC4/ISR_TIMER.c **** * Summary:
 120:.\Generated_Source\PSoC4/ISR_TIMER.c **** *   Disables and removes the interrupt.
 121:.\Generated_Source\PSoC4/ISR_TIMER.c **** *
 122:.\Generated_Source\PSoC4/ISR_TIMER.c **** * Parameters:  
 123:.\Generated_Source\PSoC4/ISR_TIMER.c **** *   None
 124:.\Generated_Source\PSoC4/ISR_TIMER.c **** *
 125:.\Generated_Source\PSoC4/ISR_TIMER.c **** * Return:
 126:.\Generated_Source\PSoC4/ISR_TIMER.c **** *   None
 127:.\Generated_Source\PSoC4/ISR_TIMER.c **** *
ARM GAS  C:\Users\ELISHA~1\AppData\Local\Temp\cchyKk7c.s 			page 5


 128:.\Generated_Source\PSoC4/ISR_TIMER.c **** *******************************************************************************/
 129:.\Generated_Source\PSoC4/ISR_TIMER.c **** void ISR_TIMER_Stop(void)
 130:.\Generated_Source\PSoC4/ISR_TIMER.c **** {
 102              		.loc 1 130 0
 103              		.cfi_startproc
 104 0000 80B5     		push	{r7, lr}
 105              		.cfi_def_cfa_offset 8
 106              		.cfi_offset 7, -8
 107              		.cfi_offset 14, -4
 108 0002 00AF     		add	r7, sp, #0
 109              		.cfi_def_cfa_register 7
 131:.\Generated_Source\PSoC4/ISR_TIMER.c ****     /* Disable this interrupt. */
 132:.\Generated_Source\PSoC4/ISR_TIMER.c ****     ISR_TIMER_Disable();
 110              		.loc 1 132 0
 111 0004 FFF7FEFF 		bl	ISR_TIMER_Disable
 133:.\Generated_Source\PSoC4/ISR_TIMER.c **** 
 134:.\Generated_Source\PSoC4/ISR_TIMER.c ****     /* Set the ISR to point to the passive one. */
 135:.\Generated_Source\PSoC4/ISR_TIMER.c ****     ISR_TIMER_SetVector(&IntDefaultHandler);
 112              		.loc 1 135 0
 113 0008 024B     		ldr	r3, .L6
 114 000a 181C     		mov	r0, r3
 115 000c FFF7FEFF 		bl	ISR_TIMER_SetVector
 136:.\Generated_Source\PSoC4/ISR_TIMER.c **** }
 116              		.loc 1 136 0
 117 0010 BD46     		mov	sp, r7
 118              		@ sp needed
 119 0012 80BD     		pop	{r7, pc}
 120              	.L7:
 121              		.align	2
 122              	.L6:
 123 0014 00000000 		.word	IntDefaultHandler
 124              		.cfi_endproc
 125              	.LFE2:
 126              		.size	ISR_TIMER_Stop, .-ISR_TIMER_Stop
 127              		.section	.text.ISR_TIMER_Interrupt,"ax",%progbits
 128              		.align	2
 129              		.global	ISR_TIMER_Interrupt
 130              		.code	16
 131              		.thumb_func
 132              		.type	ISR_TIMER_Interrupt, %function
 133              	ISR_TIMER_Interrupt:
 134              	.LFB3:
 137:.\Generated_Source\PSoC4/ISR_TIMER.c **** 
 138:.\Generated_Source\PSoC4/ISR_TIMER.c **** 
 139:.\Generated_Source\PSoC4/ISR_TIMER.c **** /*******************************************************************************
 140:.\Generated_Source\PSoC4/ISR_TIMER.c **** * Function Name: ISR_TIMER_Interrupt
 141:.\Generated_Source\PSoC4/ISR_TIMER.c **** ********************************************************************************
 142:.\Generated_Source\PSoC4/ISR_TIMER.c **** *
 143:.\Generated_Source\PSoC4/ISR_TIMER.c **** * Summary:
 144:.\Generated_Source\PSoC4/ISR_TIMER.c **** *   The default Interrupt Service Routine for ISR_TIMER.
 145:.\Generated_Source\PSoC4/ISR_TIMER.c **** *
 146:.\Generated_Source\PSoC4/ISR_TIMER.c **** *   Add custom code between the START and END comments to keep the next version
 147:.\Generated_Source\PSoC4/ISR_TIMER.c **** *   of this file from over-writing your code.
 148:.\Generated_Source\PSoC4/ISR_TIMER.c **** *
 149:.\Generated_Source\PSoC4/ISR_TIMER.c **** *   Note You may use either the default ISR by using this API, or you may define
 150:.\Generated_Source\PSoC4/ISR_TIMER.c **** *   your own separate ISR through ISR_StartEx().
 151:.\Generated_Source\PSoC4/ISR_TIMER.c **** *
ARM GAS  C:\Users\ELISHA~1\AppData\Local\Temp\cchyKk7c.s 			page 6


 152:.\Generated_Source\PSoC4/ISR_TIMER.c **** * Parameters:  
 153:.\Generated_Source\PSoC4/ISR_TIMER.c **** *   None
 154:.\Generated_Source\PSoC4/ISR_TIMER.c **** *
 155:.\Generated_Source\PSoC4/ISR_TIMER.c **** * Return:
 156:.\Generated_Source\PSoC4/ISR_TIMER.c **** *   None
 157:.\Generated_Source\PSoC4/ISR_TIMER.c **** *
 158:.\Generated_Source\PSoC4/ISR_TIMER.c **** *******************************************************************************/
 159:.\Generated_Source\PSoC4/ISR_TIMER.c **** CY_ISR(ISR_TIMER_Interrupt)
 160:.\Generated_Source\PSoC4/ISR_TIMER.c **** {
 135              		.loc 1 160 0
 136              		.cfi_startproc
 137 0000 80B5     		push	{r7, lr}
 138              		.cfi_def_cfa_offset 8
 139              		.cfi_offset 7, -8
 140              		.cfi_offset 14, -4
 141 0002 00AF     		add	r7, sp, #0
 142              		.cfi_def_cfa_register 7
 161:.\Generated_Source\PSoC4/ISR_TIMER.c ****     #ifdef ISR_TIMER_INTERRUPT_INTERRUPT_CALLBACK
 162:.\Generated_Source\PSoC4/ISR_TIMER.c ****         ISR_TIMER_Interrupt_InterruptCallback();
 163:.\Generated_Source\PSoC4/ISR_TIMER.c ****     #endif /* ISR_TIMER_INTERRUPT_INTERRUPT_CALLBACK */ 
 164:.\Generated_Source\PSoC4/ISR_TIMER.c **** 
 165:.\Generated_Source\PSoC4/ISR_TIMER.c ****     /*  Place your Interrupt code here. */
 166:.\Generated_Source\PSoC4/ISR_TIMER.c ****     /* `#START ISR_TIMER_Interrupt` */
 167:.\Generated_Source\PSoC4/ISR_TIMER.c **** 
 168:.\Generated_Source\PSoC4/ISR_TIMER.c ****     /* `#END` */
 169:.\Generated_Source\PSoC4/ISR_TIMER.c **** }
 143              		.loc 1 169 0
 144 0004 BD46     		mov	sp, r7
 145              		@ sp needed
 146 0006 80BD     		pop	{r7, pc}
 147              		.cfi_endproc
 148              	.LFE3:
 149              		.size	ISR_TIMER_Interrupt, .-ISR_TIMER_Interrupt
 150              		.section	.text.ISR_TIMER_SetVector,"ax",%progbits
 151              		.align	2
 152              		.global	ISR_TIMER_SetVector
 153              		.code	16
 154              		.thumb_func
 155              		.type	ISR_TIMER_SetVector, %function
 156              	ISR_TIMER_SetVector:
 157              	.LFB4:
 170:.\Generated_Source\PSoC4/ISR_TIMER.c **** 
 171:.\Generated_Source\PSoC4/ISR_TIMER.c **** 
 172:.\Generated_Source\PSoC4/ISR_TIMER.c **** /*******************************************************************************
 173:.\Generated_Source\PSoC4/ISR_TIMER.c **** * Function Name: ISR_TIMER_SetVector
 174:.\Generated_Source\PSoC4/ISR_TIMER.c **** ********************************************************************************
 175:.\Generated_Source\PSoC4/ISR_TIMER.c **** *
 176:.\Generated_Source\PSoC4/ISR_TIMER.c **** * Summary:
 177:.\Generated_Source\PSoC4/ISR_TIMER.c **** *   Change the ISR vector for the Interrupt. Note calling ISR_TIMER_Start
 178:.\Generated_Source\PSoC4/ISR_TIMER.c **** *   will override any effect this method would have had. To set the vector 
 179:.\Generated_Source\PSoC4/ISR_TIMER.c **** *   before the component has been started use ISR_TIMER_StartEx instead.
 180:.\Generated_Source\PSoC4/ISR_TIMER.c **** * 
 181:.\Generated_Source\PSoC4/ISR_TIMER.c **** *   When defining ISR functions, the CY_ISR and CY_ISR_PROTO macros should be 
 182:.\Generated_Source\PSoC4/ISR_TIMER.c **** *   used to provide consistent definition across compilers:
 183:.\Generated_Source\PSoC4/ISR_TIMER.c **** *
 184:.\Generated_Source\PSoC4/ISR_TIMER.c **** *   Function definition example:
 185:.\Generated_Source\PSoC4/ISR_TIMER.c **** *   CY_ISR(MyISR)
ARM GAS  C:\Users\ELISHA~1\AppData\Local\Temp\cchyKk7c.s 			page 7


 186:.\Generated_Source\PSoC4/ISR_TIMER.c **** *   {
 187:.\Generated_Source\PSoC4/ISR_TIMER.c **** *   }
 188:.\Generated_Source\PSoC4/ISR_TIMER.c **** *
 189:.\Generated_Source\PSoC4/ISR_TIMER.c **** *   Function prototype example:
 190:.\Generated_Source\PSoC4/ISR_TIMER.c **** *     CY_ISR_PROTO(MyISR);
 191:.\Generated_Source\PSoC4/ISR_TIMER.c **** *
 192:.\Generated_Source\PSoC4/ISR_TIMER.c **** * Parameters:
 193:.\Generated_Source\PSoC4/ISR_TIMER.c **** *   address: Address of the ISR to set in the interrupt vector table.
 194:.\Generated_Source\PSoC4/ISR_TIMER.c **** *
 195:.\Generated_Source\PSoC4/ISR_TIMER.c **** * Return:
 196:.\Generated_Source\PSoC4/ISR_TIMER.c **** *   None
 197:.\Generated_Source\PSoC4/ISR_TIMER.c **** *
 198:.\Generated_Source\PSoC4/ISR_TIMER.c **** *******************************************************************************/
 199:.\Generated_Source\PSoC4/ISR_TIMER.c **** void ISR_TIMER_SetVector(cyisraddress address)
 200:.\Generated_Source\PSoC4/ISR_TIMER.c **** {
 158              		.loc 1 200 0
 159              		.cfi_startproc
 160 0000 80B5     		push	{r7, lr}
 161              		.cfi_def_cfa_offset 8
 162              		.cfi_offset 7, -8
 163              		.cfi_offset 14, -4
 164 0002 82B0     		sub	sp, sp, #8
 165              		.cfi_def_cfa_offset 16
 166 0004 00AF     		add	r7, sp, #0
 167              		.cfi_def_cfa_register 7
 168 0006 7860     		str	r0, [r7, #4]
 201:.\Generated_Source\PSoC4/ISR_TIMER.c ****     CyRamVectors[CYINT_IRQ_BASE + ISR_TIMER__INTC_NUMBER] = address;
 169              		.loc 1 201 0
 170 0008 034B     		ldr	r3, .L10
 171 000a 8021     		mov	r1, #128
 172 000c 7A68     		ldr	r2, [r7, #4]
 173 000e 5A50     		str	r2, [r3, r1]
 202:.\Generated_Source\PSoC4/ISR_TIMER.c **** }
 174              		.loc 1 202 0
 175 0010 BD46     		mov	sp, r7
 176 0012 02B0     		add	sp, sp, #8
 177              		@ sp needed
 178 0014 80BD     		pop	{r7, pc}
 179              	.L11:
 180 0016 C046     		.align	2
 181              	.L10:
 182 0018 00000000 		.word	CyRamVectors
 183              		.cfi_endproc
 184              	.LFE4:
 185              		.size	ISR_TIMER_SetVector, .-ISR_TIMER_SetVector
 186              		.section	.text.ISR_TIMER_GetVector,"ax",%progbits
 187              		.align	2
 188              		.global	ISR_TIMER_GetVector
 189              		.code	16
 190              		.thumb_func
 191              		.type	ISR_TIMER_GetVector, %function
 192              	ISR_TIMER_GetVector:
 193              	.LFB5:
 203:.\Generated_Source\PSoC4/ISR_TIMER.c **** 
 204:.\Generated_Source\PSoC4/ISR_TIMER.c **** 
 205:.\Generated_Source\PSoC4/ISR_TIMER.c **** /*******************************************************************************
 206:.\Generated_Source\PSoC4/ISR_TIMER.c **** * Function Name: ISR_TIMER_GetVector
ARM GAS  C:\Users\ELISHA~1\AppData\Local\Temp\cchyKk7c.s 			page 8


 207:.\Generated_Source\PSoC4/ISR_TIMER.c **** ********************************************************************************
 208:.\Generated_Source\PSoC4/ISR_TIMER.c **** *
 209:.\Generated_Source\PSoC4/ISR_TIMER.c **** * Summary:
 210:.\Generated_Source\PSoC4/ISR_TIMER.c **** *   Gets the "address" of the current ISR vector for the Interrupt.
 211:.\Generated_Source\PSoC4/ISR_TIMER.c **** *
 212:.\Generated_Source\PSoC4/ISR_TIMER.c **** * Parameters:
 213:.\Generated_Source\PSoC4/ISR_TIMER.c **** *   None
 214:.\Generated_Source\PSoC4/ISR_TIMER.c **** *
 215:.\Generated_Source\PSoC4/ISR_TIMER.c **** * Return:
 216:.\Generated_Source\PSoC4/ISR_TIMER.c **** *   Address of the ISR in the interrupt vector table.
 217:.\Generated_Source\PSoC4/ISR_TIMER.c **** *
 218:.\Generated_Source\PSoC4/ISR_TIMER.c **** *******************************************************************************/
 219:.\Generated_Source\PSoC4/ISR_TIMER.c **** cyisraddress ISR_TIMER_GetVector(void)
 220:.\Generated_Source\PSoC4/ISR_TIMER.c **** {
 194              		.loc 1 220 0
 195              		.cfi_startproc
 196 0000 80B5     		push	{r7, lr}
 197              		.cfi_def_cfa_offset 8
 198              		.cfi_offset 7, -8
 199              		.cfi_offset 14, -4
 200 0002 00AF     		add	r7, sp, #0
 201              		.cfi_def_cfa_register 7
 221:.\Generated_Source\PSoC4/ISR_TIMER.c ****     return CyRamVectors[CYINT_IRQ_BASE + ISR_TIMER__INTC_NUMBER];
 202              		.loc 1 221 0
 203 0004 024B     		ldr	r3, .L14
 204 0006 8022     		mov	r2, #128
 205 0008 9B58     		ldr	r3, [r3, r2]
 222:.\Generated_Source\PSoC4/ISR_TIMER.c **** }
 206              		.loc 1 222 0
 207 000a 181C     		mov	r0, r3
 208 000c BD46     		mov	sp, r7
 209              		@ sp needed
 210 000e 80BD     		pop	{r7, pc}
 211              	.L15:
 212              		.align	2
 213              	.L14:
 214 0010 00000000 		.word	CyRamVectors
 215              		.cfi_endproc
 216              	.LFE5:
 217              		.size	ISR_TIMER_GetVector, .-ISR_TIMER_GetVector
 218              		.section	.text.ISR_TIMER_SetPriority,"ax",%progbits
 219              		.align	2
 220              		.global	ISR_TIMER_SetPriority
 221              		.code	16
 222              		.thumb_func
 223              		.type	ISR_TIMER_SetPriority, %function
 224              	ISR_TIMER_SetPriority:
 225              	.LFB6:
 223:.\Generated_Source\PSoC4/ISR_TIMER.c **** 
 224:.\Generated_Source\PSoC4/ISR_TIMER.c **** 
 225:.\Generated_Source\PSoC4/ISR_TIMER.c **** /*******************************************************************************
 226:.\Generated_Source\PSoC4/ISR_TIMER.c **** * Function Name: ISR_TIMER_SetPriority
 227:.\Generated_Source\PSoC4/ISR_TIMER.c **** ********************************************************************************
 228:.\Generated_Source\PSoC4/ISR_TIMER.c **** *
 229:.\Generated_Source\PSoC4/ISR_TIMER.c **** * Summary:
 230:.\Generated_Source\PSoC4/ISR_TIMER.c **** *   Sets the Priority of the Interrupt. 
 231:.\Generated_Source\PSoC4/ISR_TIMER.c **** *
ARM GAS  C:\Users\ELISHA~1\AppData\Local\Temp\cchyKk7c.s 			page 9


 232:.\Generated_Source\PSoC4/ISR_TIMER.c **** *   Note calling ISR_TIMER_Start or ISR_TIMER_StartEx will 
 233:.\Generated_Source\PSoC4/ISR_TIMER.c **** *   override any effect this API would have had. This API should only be called
 234:.\Generated_Source\PSoC4/ISR_TIMER.c **** *   after ISR_TIMER_Start or ISR_TIMER_StartEx has been called. 
 235:.\Generated_Source\PSoC4/ISR_TIMER.c **** *   To set the initial priority for the component, use the Design-Wide Resources
 236:.\Generated_Source\PSoC4/ISR_TIMER.c **** *   Interrupt Editor.
 237:.\Generated_Source\PSoC4/ISR_TIMER.c **** *
 238:.\Generated_Source\PSoC4/ISR_TIMER.c **** *   Note This API has no effect on Non-maskable interrupt NMI).
 239:.\Generated_Source\PSoC4/ISR_TIMER.c **** *
 240:.\Generated_Source\PSoC4/ISR_TIMER.c **** * Parameters:
 241:.\Generated_Source\PSoC4/ISR_TIMER.c **** *   priority: Priority of the interrupt, 0 being the highest priority
 242:.\Generated_Source\PSoC4/ISR_TIMER.c **** *             PSoC 3 and PSoC 5LP: Priority is from 0 to 7.
 243:.\Generated_Source\PSoC4/ISR_TIMER.c **** *             PSoC 4: Priority is from 0 to 3.
 244:.\Generated_Source\PSoC4/ISR_TIMER.c **** *
 245:.\Generated_Source\PSoC4/ISR_TIMER.c **** * Return:
 246:.\Generated_Source\PSoC4/ISR_TIMER.c **** *   None
 247:.\Generated_Source\PSoC4/ISR_TIMER.c **** *
 248:.\Generated_Source\PSoC4/ISR_TIMER.c **** *******************************************************************************/
 249:.\Generated_Source\PSoC4/ISR_TIMER.c **** void ISR_TIMER_SetPriority(uint8 priority)
 250:.\Generated_Source\PSoC4/ISR_TIMER.c **** {
 226              		.loc 1 250 0
 227              		.cfi_startproc
 228 0000 90B5     		push	{r4, r7, lr}
 229              		.cfi_def_cfa_offset 12
 230              		.cfi_offset 4, -12
 231              		.cfi_offset 7, -8
 232              		.cfi_offset 14, -4
 233 0002 85B0     		sub	sp, sp, #20
 234              		.cfi_def_cfa_offset 32
 235 0004 00AF     		add	r7, sp, #0
 236              		.cfi_def_cfa_register 7
 237 0006 021C     		mov	r2, r0
 238 0008 FB1D     		add	r3, r7, #7
 239 000a 1A70     		strb	r2, [r3]
 251:.\Generated_Source\PSoC4/ISR_TIMER.c **** 	uint8 interruptState;
 252:.\Generated_Source\PSoC4/ISR_TIMER.c ****     uint32 priorityOffset = ((ISR_TIMER__INTC_NUMBER % 4u) * 8u) + 6u;
 240              		.loc 1 252 0
 241 000c 0623     		mov	r3, #6
 242 000e FB60     		str	r3, [r7, #12]
 253:.\Generated_Source\PSoC4/ISR_TIMER.c ****     
 254:.\Generated_Source\PSoC4/ISR_TIMER.c **** 	interruptState = CyEnterCriticalSection();
 243              		.loc 1 254 0
 244 0010 0B23     		mov	r3, #11
 245 0012 FC18     		add	r4, r7, r3
 246 0014 FFF7FEFF 		bl	CyEnterCriticalSection
 247 0018 031C     		mov	r3, r0
 248 001a 2370     		strb	r3, [r4]
 255:.\Generated_Source\PSoC4/ISR_TIMER.c ****     *ISR_TIMER_INTC_PRIOR = (*ISR_TIMER_INTC_PRIOR & (uint32)(~ISR_TIMER__INTC_PRIOR_MASK)) |
 249              		.loc 1 255 0
 250 001c 0A4B     		ldr	r3, .L17
 251 001e 0A4A     		ldr	r2, .L17
 252 0020 1268     		ldr	r2, [r2]
 253 0022 C021     		mov	r1, #192
 254 0024 8A43     		bic	r2, r1
 255 0026 111C     		mov	r1, r2
 256:.\Generated_Source\PSoC4/ISR_TIMER.c ****                                     ((uint32)priority << priorityOffset);
 256              		.loc 1 256 0
 257 0028 FA1D     		add	r2, r7, #7
ARM GAS  C:\Users\ELISHA~1\AppData\Local\Temp\cchyKk7c.s 			page 10


 258 002a 1078     		ldrb	r0, [r2]
 259 002c FA68     		ldr	r2, [r7, #12]
 260 002e 9040     		lsl	r0, r0, r2
 261 0030 021C     		mov	r2, r0
 255:.\Generated_Source\PSoC4/ISR_TIMER.c ****     *ISR_TIMER_INTC_PRIOR = (*ISR_TIMER_INTC_PRIOR & (uint32)(~ISR_TIMER__INTC_PRIOR_MASK)) |
 262              		.loc 1 255 0
 263 0032 0A43     		orr	r2, r1
 264 0034 1A60     		str	r2, [r3]
 257:.\Generated_Source\PSoC4/ISR_TIMER.c **** 	CyExitCriticalSection(interruptState);
 265              		.loc 1 257 0
 266 0036 0B23     		mov	r3, #11
 267 0038 FB18     		add	r3, r7, r3
 268 003a 1B78     		ldrb	r3, [r3]
 269 003c 181C     		mov	r0, r3
 270 003e FFF7FEFF 		bl	CyExitCriticalSection
 258:.\Generated_Source\PSoC4/ISR_TIMER.c **** }
 271              		.loc 1 258 0
 272 0042 BD46     		mov	sp, r7
 273 0044 05B0     		add	sp, sp, #20
 274              		@ sp needed
 275 0046 90BD     		pop	{r4, r7, pc}
 276              	.L18:
 277              		.align	2
 278              	.L17:
 279 0048 10E400E0 		.word	-536812528
 280              		.cfi_endproc
 281              	.LFE6:
 282              		.size	ISR_TIMER_SetPriority, .-ISR_TIMER_SetPriority
 283              		.section	.text.ISR_TIMER_GetPriority,"ax",%progbits
 284              		.align	2
 285              		.global	ISR_TIMER_GetPriority
 286              		.code	16
 287              		.thumb_func
 288              		.type	ISR_TIMER_GetPriority, %function
 289              	ISR_TIMER_GetPriority:
 290              	.LFB7:
 259:.\Generated_Source\PSoC4/ISR_TIMER.c **** 
 260:.\Generated_Source\PSoC4/ISR_TIMER.c **** 
 261:.\Generated_Source\PSoC4/ISR_TIMER.c **** /*******************************************************************************
 262:.\Generated_Source\PSoC4/ISR_TIMER.c **** * Function Name: ISR_TIMER_GetPriority
 263:.\Generated_Source\PSoC4/ISR_TIMER.c **** ********************************************************************************
 264:.\Generated_Source\PSoC4/ISR_TIMER.c **** *
 265:.\Generated_Source\PSoC4/ISR_TIMER.c **** * Summary:
 266:.\Generated_Source\PSoC4/ISR_TIMER.c **** *   Gets the Priority of the Interrupt.
 267:.\Generated_Source\PSoC4/ISR_TIMER.c **** *
 268:.\Generated_Source\PSoC4/ISR_TIMER.c **** * Parameters:
 269:.\Generated_Source\PSoC4/ISR_TIMER.c **** *   None
 270:.\Generated_Source\PSoC4/ISR_TIMER.c **** *
 271:.\Generated_Source\PSoC4/ISR_TIMER.c **** * Return:
 272:.\Generated_Source\PSoC4/ISR_TIMER.c **** *   Priority of the interrupt, 0 being the highest priority
 273:.\Generated_Source\PSoC4/ISR_TIMER.c **** *    PSoC 3 and PSoC 5LP: Priority is from 0 to 7.
 274:.\Generated_Source\PSoC4/ISR_TIMER.c **** *    PSoC 4: Priority is from 0 to 3.
 275:.\Generated_Source\PSoC4/ISR_TIMER.c **** *
 276:.\Generated_Source\PSoC4/ISR_TIMER.c **** *******************************************************************************/
 277:.\Generated_Source\PSoC4/ISR_TIMER.c **** uint8 ISR_TIMER_GetPriority(void)
 278:.\Generated_Source\PSoC4/ISR_TIMER.c **** {
 291              		.loc 1 278 0
ARM GAS  C:\Users\ELISHA~1\AppData\Local\Temp\cchyKk7c.s 			page 11


 292              		.cfi_startproc
 293 0000 80B5     		push	{r7, lr}
 294              		.cfi_def_cfa_offset 8
 295              		.cfi_offset 7, -8
 296              		.cfi_offset 14, -4
 297 0002 82B0     		sub	sp, sp, #8
 298              		.cfi_def_cfa_offset 16
 299 0004 00AF     		add	r7, sp, #0
 300              		.cfi_def_cfa_register 7
 279:.\Generated_Source\PSoC4/ISR_TIMER.c ****     uint32 priority;
 280:.\Generated_Source\PSoC4/ISR_TIMER.c **** 	uint32 priorityOffset = ((ISR_TIMER__INTC_NUMBER % 4u) * 8u) + 6u;
 301              		.loc 1 280 0
 302 0006 0623     		mov	r3, #6
 303 0008 7B60     		str	r3, [r7, #4]
 281:.\Generated_Source\PSoC4/ISR_TIMER.c **** 
 282:.\Generated_Source\PSoC4/ISR_TIMER.c ****     priority = (*ISR_TIMER_INTC_PRIOR & ISR_TIMER__INTC_PRIOR_MASK) >> priorityOffset;
 304              		.loc 1 282 0
 305 000a 074B     		ldr	r3, .L21
 306 000c 1B68     		ldr	r3, [r3]
 307 000e C022     		mov	r2, #192
 308 0010 1A40     		and	r2, r3
 309 0012 7B68     		ldr	r3, [r7, #4]
 310 0014 DA40     		lsr	r2, r2, r3
 311 0016 131C     		mov	r3, r2
 312 0018 3B60     		str	r3, [r7]
 283:.\Generated_Source\PSoC4/ISR_TIMER.c **** 
 284:.\Generated_Source\PSoC4/ISR_TIMER.c ****     return (uint8)priority;
 313              		.loc 1 284 0
 314 001a 3B68     		ldr	r3, [r7]
 315 001c DBB2     		uxtb	r3, r3
 285:.\Generated_Source\PSoC4/ISR_TIMER.c **** }
 316              		.loc 1 285 0
 317 001e 181C     		mov	r0, r3
 318 0020 BD46     		mov	sp, r7
 319 0022 02B0     		add	sp, sp, #8
 320              		@ sp needed
 321 0024 80BD     		pop	{r7, pc}
 322              	.L22:
 323 0026 C046     		.align	2
 324              	.L21:
 325 0028 10E400E0 		.word	-536812528
 326              		.cfi_endproc
 327              	.LFE7:
 328              		.size	ISR_TIMER_GetPriority, .-ISR_TIMER_GetPriority
 329              		.section	.text.ISR_TIMER_Enable,"ax",%progbits
 330              		.align	2
 331              		.global	ISR_TIMER_Enable
 332              		.code	16
 333              		.thumb_func
 334              		.type	ISR_TIMER_Enable, %function
 335              	ISR_TIMER_Enable:
 336              	.LFB8:
 286:.\Generated_Source\PSoC4/ISR_TIMER.c **** 
 287:.\Generated_Source\PSoC4/ISR_TIMER.c **** 
 288:.\Generated_Source\PSoC4/ISR_TIMER.c **** /*******************************************************************************
 289:.\Generated_Source\PSoC4/ISR_TIMER.c **** * Function Name: ISR_TIMER_Enable
 290:.\Generated_Source\PSoC4/ISR_TIMER.c **** ********************************************************************************
ARM GAS  C:\Users\ELISHA~1\AppData\Local\Temp\cchyKk7c.s 			page 12


 291:.\Generated_Source\PSoC4/ISR_TIMER.c **** *
 292:.\Generated_Source\PSoC4/ISR_TIMER.c **** * Summary:
 293:.\Generated_Source\PSoC4/ISR_TIMER.c **** *   Enables the interrupt to the interrupt controller. Do not call this function
 294:.\Generated_Source\PSoC4/ISR_TIMER.c **** *   unless ISR_Start() has been called or the functionality of the ISR_Start() 
 295:.\Generated_Source\PSoC4/ISR_TIMER.c **** *   function, which sets the vector and the priority, has been called.
 296:.\Generated_Source\PSoC4/ISR_TIMER.c **** *
 297:.\Generated_Source\PSoC4/ISR_TIMER.c **** * Parameters:
 298:.\Generated_Source\PSoC4/ISR_TIMER.c **** *   None
 299:.\Generated_Source\PSoC4/ISR_TIMER.c **** *
 300:.\Generated_Source\PSoC4/ISR_TIMER.c **** * Return:
 301:.\Generated_Source\PSoC4/ISR_TIMER.c **** *   None
 302:.\Generated_Source\PSoC4/ISR_TIMER.c **** *
 303:.\Generated_Source\PSoC4/ISR_TIMER.c **** *******************************************************************************/
 304:.\Generated_Source\PSoC4/ISR_TIMER.c **** void ISR_TIMER_Enable(void)
 305:.\Generated_Source\PSoC4/ISR_TIMER.c **** {
 337              		.loc 1 305 0
 338              		.cfi_startproc
 339 0000 80B5     		push	{r7, lr}
 340              		.cfi_def_cfa_offset 8
 341              		.cfi_offset 7, -8
 342              		.cfi_offset 14, -4
 343 0002 00AF     		add	r7, sp, #0
 344              		.cfi_def_cfa_register 7
 306:.\Generated_Source\PSoC4/ISR_TIMER.c ****     /* Enable the general interrupt. */
 307:.\Generated_Source\PSoC4/ISR_TIMER.c ****     *ISR_TIMER_INTC_SET_EN = ISR_TIMER__INTC_MASK;
 345              		.loc 1 307 0
 346 0004 024B     		ldr	r3, .L24
 347 0006 8022     		mov	r2, #128
 348 0008 5202     		lsl	r2, r2, #9
 349 000a 1A60     		str	r2, [r3]
 308:.\Generated_Source\PSoC4/ISR_TIMER.c **** }
 350              		.loc 1 308 0
 351 000c BD46     		mov	sp, r7
 352              		@ sp needed
 353 000e 80BD     		pop	{r7, pc}
 354              	.L25:
 355              		.align	2
 356              	.L24:
 357 0010 00E100E0 		.word	-536813312
 358              		.cfi_endproc
 359              	.LFE8:
 360              		.size	ISR_TIMER_Enable, .-ISR_TIMER_Enable
 361              		.section	.text.ISR_TIMER_GetState,"ax",%progbits
 362              		.align	2
 363              		.global	ISR_TIMER_GetState
 364              		.code	16
 365              		.thumb_func
 366              		.type	ISR_TIMER_GetState, %function
 367              	ISR_TIMER_GetState:
 368              	.LFB9:
 309:.\Generated_Source\PSoC4/ISR_TIMER.c **** 
 310:.\Generated_Source\PSoC4/ISR_TIMER.c **** 
 311:.\Generated_Source\PSoC4/ISR_TIMER.c **** /*******************************************************************************
 312:.\Generated_Source\PSoC4/ISR_TIMER.c **** * Function Name: ISR_TIMER_GetState
 313:.\Generated_Source\PSoC4/ISR_TIMER.c **** ********************************************************************************
 314:.\Generated_Source\PSoC4/ISR_TIMER.c **** *
 315:.\Generated_Source\PSoC4/ISR_TIMER.c **** * Summary:
ARM GAS  C:\Users\ELISHA~1\AppData\Local\Temp\cchyKk7c.s 			page 13


 316:.\Generated_Source\PSoC4/ISR_TIMER.c **** *   Gets the state (enabled, disabled) of the Interrupt.
 317:.\Generated_Source\PSoC4/ISR_TIMER.c **** *
 318:.\Generated_Source\PSoC4/ISR_TIMER.c **** * Parameters:
 319:.\Generated_Source\PSoC4/ISR_TIMER.c **** *   None
 320:.\Generated_Source\PSoC4/ISR_TIMER.c **** *
 321:.\Generated_Source\PSoC4/ISR_TIMER.c **** * Return:
 322:.\Generated_Source\PSoC4/ISR_TIMER.c **** *   1 if enabled, 0 if disabled.
 323:.\Generated_Source\PSoC4/ISR_TIMER.c **** *
 324:.\Generated_Source\PSoC4/ISR_TIMER.c **** *******************************************************************************/
 325:.\Generated_Source\PSoC4/ISR_TIMER.c **** uint8 ISR_TIMER_GetState(void)
 326:.\Generated_Source\PSoC4/ISR_TIMER.c **** {
 369              		.loc 1 326 0
 370              		.cfi_startproc
 371 0000 80B5     		push	{r7, lr}
 372              		.cfi_def_cfa_offset 8
 373              		.cfi_offset 7, -8
 374              		.cfi_offset 14, -4
 375 0002 00AF     		add	r7, sp, #0
 376              		.cfi_def_cfa_register 7
 327:.\Generated_Source\PSoC4/ISR_TIMER.c ****     /* Get the state of the general interrupt. */
 328:.\Generated_Source\PSoC4/ISR_TIMER.c ****     return ((*ISR_TIMER_INTC_SET_EN & (uint32)ISR_TIMER__INTC_MASK) != 0u) ? 1u:0u;
 377              		.loc 1 328 0
 378 0004 054B     		ldr	r3, .L30
 379 0006 1A68     		ldr	r2, [r3]
 380 0008 8023     		mov	r3, #128
 381 000a 5B02     		lsl	r3, r3, #9
 382 000c 1340     		and	r3, r2
 383 000e 01D0     		beq	.L27
 384              		.loc 1 328 0 is_stmt 0 discriminator 1
 385 0010 0123     		mov	r3, #1
 386 0012 00E0     		b	.L28
 387              	.L27:
 388              		.loc 1 328 0 discriminator 2
 389 0014 0023     		mov	r3, #0
 390              	.L28:
 329:.\Generated_Source\PSoC4/ISR_TIMER.c **** }
 391              		.loc 1 329 0 is_stmt 1 discriminator 4
 392 0016 181C     		mov	r0, r3
 393 0018 BD46     		mov	sp, r7
 394              		@ sp needed
 395 001a 80BD     		pop	{r7, pc}
 396              	.L31:
 397              		.align	2
 398              	.L30:
 399 001c 00E100E0 		.word	-536813312
 400              		.cfi_endproc
 401              	.LFE9:
 402              		.size	ISR_TIMER_GetState, .-ISR_TIMER_GetState
 403              		.section	.text.ISR_TIMER_Disable,"ax",%progbits
 404              		.align	2
 405              		.global	ISR_TIMER_Disable
 406              		.code	16
 407              		.thumb_func
 408              		.type	ISR_TIMER_Disable, %function
 409              	ISR_TIMER_Disable:
 410              	.LFB10:
 330:.\Generated_Source\PSoC4/ISR_TIMER.c **** 
ARM GAS  C:\Users\ELISHA~1\AppData\Local\Temp\cchyKk7c.s 			page 14


 331:.\Generated_Source\PSoC4/ISR_TIMER.c **** 
 332:.\Generated_Source\PSoC4/ISR_TIMER.c **** /*******************************************************************************
 333:.\Generated_Source\PSoC4/ISR_TIMER.c **** * Function Name: ISR_TIMER_Disable
 334:.\Generated_Source\PSoC4/ISR_TIMER.c **** ********************************************************************************
 335:.\Generated_Source\PSoC4/ISR_TIMER.c **** *
 336:.\Generated_Source\PSoC4/ISR_TIMER.c **** * Summary:
 337:.\Generated_Source\PSoC4/ISR_TIMER.c **** *   Disables the Interrupt in the interrupt controller.
 338:.\Generated_Source\PSoC4/ISR_TIMER.c **** *
 339:.\Generated_Source\PSoC4/ISR_TIMER.c **** * Parameters:
 340:.\Generated_Source\PSoC4/ISR_TIMER.c **** *   None
 341:.\Generated_Source\PSoC4/ISR_TIMER.c **** *
 342:.\Generated_Source\PSoC4/ISR_TIMER.c **** * Return:
 343:.\Generated_Source\PSoC4/ISR_TIMER.c **** *   None
 344:.\Generated_Source\PSoC4/ISR_TIMER.c **** *
 345:.\Generated_Source\PSoC4/ISR_TIMER.c **** *******************************************************************************/
 346:.\Generated_Source\PSoC4/ISR_TIMER.c **** void ISR_TIMER_Disable(void)
 347:.\Generated_Source\PSoC4/ISR_TIMER.c **** {
 411              		.loc 1 347 0
 412              		.cfi_startproc
 413 0000 80B5     		push	{r7, lr}
 414              		.cfi_def_cfa_offset 8
 415              		.cfi_offset 7, -8
 416              		.cfi_offset 14, -4
 417 0002 00AF     		add	r7, sp, #0
 418              		.cfi_def_cfa_register 7
 348:.\Generated_Source\PSoC4/ISR_TIMER.c ****     /* Disable the general interrupt. */
 349:.\Generated_Source\PSoC4/ISR_TIMER.c ****     *ISR_TIMER_INTC_CLR_EN = ISR_TIMER__INTC_MASK;
 419              		.loc 1 349 0
 420 0004 024B     		ldr	r3, .L33
 421 0006 8022     		mov	r2, #128
 422 0008 5202     		lsl	r2, r2, #9
 423 000a 1A60     		str	r2, [r3]
 350:.\Generated_Source\PSoC4/ISR_TIMER.c **** }
 424              		.loc 1 350 0
 425 000c BD46     		mov	sp, r7
 426              		@ sp needed
 427 000e 80BD     		pop	{r7, pc}
 428              	.L34:
 429              		.align	2
 430              	.L33:
 431 0010 80E100E0 		.word	-536813184
 432              		.cfi_endproc
 433              	.LFE10:
 434              		.size	ISR_TIMER_Disable, .-ISR_TIMER_Disable
 435              		.section	.text.ISR_TIMER_SetPending,"ax",%progbits
 436              		.align	2
 437              		.global	ISR_TIMER_SetPending
 438              		.code	16
 439              		.thumb_func
 440              		.type	ISR_TIMER_SetPending, %function
 441              	ISR_TIMER_SetPending:
 442              	.LFB11:
 351:.\Generated_Source\PSoC4/ISR_TIMER.c **** 
 352:.\Generated_Source\PSoC4/ISR_TIMER.c **** 
 353:.\Generated_Source\PSoC4/ISR_TIMER.c **** /*******************************************************************************
 354:.\Generated_Source\PSoC4/ISR_TIMER.c **** * Function Name: ISR_TIMER_SetPending
 355:.\Generated_Source\PSoC4/ISR_TIMER.c **** ********************************************************************************
ARM GAS  C:\Users\ELISHA~1\AppData\Local\Temp\cchyKk7c.s 			page 15


 356:.\Generated_Source\PSoC4/ISR_TIMER.c **** *
 357:.\Generated_Source\PSoC4/ISR_TIMER.c **** * Summary:
 358:.\Generated_Source\PSoC4/ISR_TIMER.c **** *   Causes the Interrupt to enter the pending state, a software method of
 359:.\Generated_Source\PSoC4/ISR_TIMER.c **** *   generating the interrupt.
 360:.\Generated_Source\PSoC4/ISR_TIMER.c **** *
 361:.\Generated_Source\PSoC4/ISR_TIMER.c **** * Parameters:
 362:.\Generated_Source\PSoC4/ISR_TIMER.c **** *   None
 363:.\Generated_Source\PSoC4/ISR_TIMER.c **** *
 364:.\Generated_Source\PSoC4/ISR_TIMER.c **** * Return:
 365:.\Generated_Source\PSoC4/ISR_TIMER.c **** *   None
 366:.\Generated_Source\PSoC4/ISR_TIMER.c **** *
 367:.\Generated_Source\PSoC4/ISR_TIMER.c **** * Side Effects:
 368:.\Generated_Source\PSoC4/ISR_TIMER.c **** *   If interrupts are enabled and the interrupt is set up properly, the ISR is
 369:.\Generated_Source\PSoC4/ISR_TIMER.c **** *   entered (depending on the priority of this interrupt and other pending 
 370:.\Generated_Source\PSoC4/ISR_TIMER.c **** *   interrupts).
 371:.\Generated_Source\PSoC4/ISR_TIMER.c **** *
 372:.\Generated_Source\PSoC4/ISR_TIMER.c **** *******************************************************************************/
 373:.\Generated_Source\PSoC4/ISR_TIMER.c **** void ISR_TIMER_SetPending(void)
 374:.\Generated_Source\PSoC4/ISR_TIMER.c **** {
 443              		.loc 1 374 0
 444              		.cfi_startproc
 445 0000 80B5     		push	{r7, lr}
 446              		.cfi_def_cfa_offset 8
 447              		.cfi_offset 7, -8
 448              		.cfi_offset 14, -4
 449 0002 00AF     		add	r7, sp, #0
 450              		.cfi_def_cfa_register 7
 375:.\Generated_Source\PSoC4/ISR_TIMER.c ****     *ISR_TIMER_INTC_SET_PD = ISR_TIMER__INTC_MASK;
 451              		.loc 1 375 0
 452 0004 024B     		ldr	r3, .L36
 453 0006 8022     		mov	r2, #128
 454 0008 5202     		lsl	r2, r2, #9
 455 000a 1A60     		str	r2, [r3]
 376:.\Generated_Source\PSoC4/ISR_TIMER.c **** }
 456              		.loc 1 376 0
 457 000c BD46     		mov	sp, r7
 458              		@ sp needed
 459 000e 80BD     		pop	{r7, pc}
 460              	.L37:
 461              		.align	2
 462              	.L36:
 463 0010 00E200E0 		.word	-536813056
 464              		.cfi_endproc
 465              	.LFE11:
 466              		.size	ISR_TIMER_SetPending, .-ISR_TIMER_SetPending
 467              		.section	.text.ISR_TIMER_ClearPending,"ax",%progbits
 468              		.align	2
 469              		.global	ISR_TIMER_ClearPending
 470              		.code	16
 471              		.thumb_func
 472              		.type	ISR_TIMER_ClearPending, %function
 473              	ISR_TIMER_ClearPending:
 474              	.LFB12:
 377:.\Generated_Source\PSoC4/ISR_TIMER.c **** 
 378:.\Generated_Source\PSoC4/ISR_TIMER.c **** 
 379:.\Generated_Source\PSoC4/ISR_TIMER.c **** /*******************************************************************************
 380:.\Generated_Source\PSoC4/ISR_TIMER.c **** * Function Name: ISR_TIMER_ClearPending
ARM GAS  C:\Users\ELISHA~1\AppData\Local\Temp\cchyKk7c.s 			page 16


 381:.\Generated_Source\PSoC4/ISR_TIMER.c **** ********************************************************************************
 382:.\Generated_Source\PSoC4/ISR_TIMER.c **** *
 383:.\Generated_Source\PSoC4/ISR_TIMER.c **** * Summary:
 384:.\Generated_Source\PSoC4/ISR_TIMER.c **** *   Clears a pending interrupt in the interrupt controller.
 385:.\Generated_Source\PSoC4/ISR_TIMER.c **** *
 386:.\Generated_Source\PSoC4/ISR_TIMER.c **** *   Note Some interrupt sources are clear-on-read and require the block 
 387:.\Generated_Source\PSoC4/ISR_TIMER.c **** *   interrupt/status register to be read/cleared with the appropriate block API 
 388:.\Generated_Source\PSoC4/ISR_TIMER.c **** *   (GPIO, UART, and so on). Otherwise the ISR will continue to remain in 
 389:.\Generated_Source\PSoC4/ISR_TIMER.c **** *   pending state even though the interrupt itself is cleared using this API.
 390:.\Generated_Source\PSoC4/ISR_TIMER.c **** *
 391:.\Generated_Source\PSoC4/ISR_TIMER.c **** * Parameters:
 392:.\Generated_Source\PSoC4/ISR_TIMER.c **** *   None
 393:.\Generated_Source\PSoC4/ISR_TIMER.c **** *
 394:.\Generated_Source\PSoC4/ISR_TIMER.c **** * Return:
 395:.\Generated_Source\PSoC4/ISR_TIMER.c **** *   None
 396:.\Generated_Source\PSoC4/ISR_TIMER.c **** *
 397:.\Generated_Source\PSoC4/ISR_TIMER.c **** *******************************************************************************/
 398:.\Generated_Source\PSoC4/ISR_TIMER.c **** void ISR_TIMER_ClearPending(void)
 399:.\Generated_Source\PSoC4/ISR_TIMER.c **** {
 475              		.loc 1 399 0
 476              		.cfi_startproc
 477 0000 80B5     		push	{r7, lr}
 478              		.cfi_def_cfa_offset 8
 479              		.cfi_offset 7, -8
 480              		.cfi_offset 14, -4
 481 0002 00AF     		add	r7, sp, #0
 482              		.cfi_def_cfa_register 7
 400:.\Generated_Source\PSoC4/ISR_TIMER.c ****     *ISR_TIMER_INTC_CLR_PD = ISR_TIMER__INTC_MASK;
 483              		.loc 1 400 0
 484 0004 024B     		ldr	r3, .L39
 485 0006 8022     		mov	r2, #128
 486 0008 5202     		lsl	r2, r2, #9
 487 000a 1A60     		str	r2, [r3]
 401:.\Generated_Source\PSoC4/ISR_TIMER.c **** }
 488              		.loc 1 401 0
 489 000c BD46     		mov	sp, r7
 490              		@ sp needed
 491 000e 80BD     		pop	{r7, pc}
 492              	.L40:
 493              		.align	2
 494              	.L39:
 495 0010 80E200E0 		.word	-536812928
 496              		.cfi_endproc
 497              	.LFE12:
 498              		.size	ISR_TIMER_ClearPending, .-ISR_TIMER_ClearPending
 499              		.text
 500              	.Letext0:
 501              		.file 2 "Generated_Source\\PSoC4/cytypes.h"