ARM GAS  C:\Users\ELISHA~1\AppData\Local\Temp\ccorKkMb.s 			page 1


   1              		.cpu cortex-m0
   2              		.fpu softvfp
   3              		.eabi_attribute 20, 1
   4              		.eabi_attribute 21, 1
   5              		.eabi_attribute 23, 3
   6              		.eabi_attribute 24, 1
   7              		.eabi_attribute 25, 1
   8              		.eabi_attribute 26, 1
   9              		.eabi_attribute 30, 6
  10              		.eabi_attribute 34, 0
  11              		.eabi_attribute 18, 4
  12              		.code	16
  13              		.file	"main.c"
  14              		.text
  15              	.Ltext0:
  16              		.cfi_sections	.debug_frame
  17              		.global	dataReady
  18              		.bss
  19              		.align	2
  20              		.type	dataReady, %object
  21              		.size	dataReady, 4
  22              	dataReady:
  23 0000 00000000 		.space	4
  24              		.comm	result,4,4
  25              		.global	timer_delay
  26              		.align	2
  27              		.type	timer_delay, %object
  28              		.size	timer_delay, 4
  29              	timer_delay:
  30 0004 00000000 		.space	4
  31              		.section	.text.ISR_TIMER_LOC,"ax",%progbits
  32              		.align	2
  33              		.global	ISR_TIMER_LOC
  34              		.code	16
  35              		.thumb_func
  36              		.type	ISR_TIMER_LOC, %function
  37              	ISR_TIMER_LOC:
  38              	.LFB33:
  39              		.file 1 ".\\main.c"
   1:.\main.c      **** /*******************************************************************************
   2:.\main.c      **** * File Name: main.c
   3:.\main.c      **** *
   4:.\main.c      **** * Version: 1.10
   5:.\main.c      **** *
   6:.\main.c      **** * Description:
   7:.\main.c      **** *  Sequencing SAR ADC and DieTemp datasheet example project.
   8:.\main.c      **** *
   9:.\main.c      **** * Note:
  10:.\main.c      **** *  Pin_Vin pin (P0[4]) must be connected to the GND.
  11:.\main.c      **** *  UART_tx pin (P0[5]) must be connected to the pin (P12[6]) of J8 header.
  12:.\main.c      **** *  Verify that J9 is connected to 5V.
  13:.\main.c      **** *
  14:.\main.c      **** * Hardware Dependency:
  15:.\main.c      **** *  PSoC4 Pioneer kit
  16:.\main.c      **** *
  17:.\main.c      **** ********************************************************************************
  18:.\main.c      **** * Copyright 2013-2014, Cypress Semiconductor Corporation. All rights reserved.
ARM GAS  C:\Users\ELISHA~1\AppData\Local\Temp\ccorKkMb.s 			page 2


  19:.\main.c      **** * This software is owned by Cypress Semiconductor Corporation and is protected
  20:.\main.c      **** * by and subject to worldwide patent and copyright laws and treaties.
  21:.\main.c      **** * Therefore, you may use this software only as provided in the license agreement
  22:.\main.c      **** * accompanying the software package from which you obtained this software.
  23:.\main.c      **** * CYPRESS AND ITS SUPPLIERS MAKE NO WARRANTY OF ANY KIND, EXPRESS OR IMPLIED,
  24:.\main.c      **** * WITH REGARD TO THIS SOFTWARE, INCLUDING, BUT NOT LIMITED TO, NONINFRINGEMENT,
  25:.\main.c      **** * IMPLIED WARRANTIES OF MERCHANTABILITY AND FITNESS FOR A PARTICULAR PURPOSE.
  26:.\main.c      **** *******************************************************************************/
  27:.\main.c      **** 
  28:.\main.c      **** #include <device.h>
  29:.\main.c      **** #include <stdio.h>
  30:.\main.c      **** 
  31:.\main.c      **** /* ADC SAR sequencer component header to access Vref value */
  32:.\main.c      **** #include <ADC_SAR_SEQ.h>
  33:.\main.c      **** 
  34:.\main.c      **** #define CH0_N               (0x00u)
  35:.\main.c      **** #define TEMP_CH             (0x01u)
  36:.\main.c      **** #define DELAY_1SEC          (1000u)
  37:.\main.c      **** 
  38:.\main.c      **** /* Get actual Vref. value from ADC SAR sequencer */
  39:.\main.c      **** #define ADC_VREF_VALUE_V    ((float)ADC_SAR_SEQ_DEFAULT_VREF_MV_VALUE/1000.0)
  40:.\main.c      **** 
  41:.\main.c      **** volatile uint32 dataReady = 0u;
  42:.\main.c      **** volatile int16 result[ADC_SAR_SEQ_TOTAL_CHANNELS_NUM];
  43:.\main.c      **** volatile uint32 timer_delay = 0u;
  44:.\main.c      **** 
  45:.\main.c      **** 
  46:.\main.c      **** /******************************************************************************
  47:.\main.c      **** * Function Name: ISR_TIMER_LOC
  48:.\main.c      **** *******************************************************************************
  49:.\main.c      **** *
  50:.\main.c      **** * Summary:
  51:.\main.c      **** *  Handle Interrupt Service Routine. Source - TIMER.
  52:.\main.c      **** *
  53:.\main.c      **** ******************************************************************************/
  54:.\main.c      **** CY_ISR(ISR_TIMER_LOC)
  55:.\main.c      **** {
  40              		.loc 1 55 0
  41              		.cfi_startproc
  42 0000 80B5     		push	{r7, lr}
  43              		.cfi_def_cfa_offset 8
  44              		.cfi_offset 7, -8
  45              		.cfi_offset 14, -4
  46 0002 00AF     		add	r7, sp, #0
  47              		.cfi_def_cfa_register 7
  56:.\main.c      ****     timer_delay++;
  48              		.loc 1 56 0
  49 0004 0A4B     		ldr	r3, .L3
  50 0006 1B68     		ldr	r3, [r3]
  51 0008 5A1C     		add	r2, r3, #1
  52 000a 094B     		ldr	r3, .L3
  53 000c 1A60     		str	r2, [r3]
  57:.\main.c      ****     
  58:.\main.c      ****     /* Measures temperature once per second */
  59:.\main.c      ****     if(timer_delay > DELAY_1SEC)
  54              		.loc 1 59 0
  55 000e 084B     		ldr	r3, .L3
ARM GAS  C:\Users\ELISHA~1\AppData\Local\Temp\ccorKkMb.s 			page 3


  56 0010 1A68     		ldr	r2, [r3]
  57 0012 FA23     		mov	r3, #250
  58 0014 9B00     		lsl	r3, r3, #2
  59 0016 9A42     		cmp	r2, r3
  60 0018 04D9     		bls	.L2
  60:.\main.c      ****     {
  61:.\main.c      ****         /* Enables injection channel for next scan */
  62:.\main.c      ****         ADC_SAR_SEQ_EnableInjection();
  61              		.loc 1 62 0
  62 001a FFF7FEFF 		bl	ADC_SAR_SEQ_EnableInjection
  63:.\main.c      ****         timer_delay = 0u;
  63              		.loc 1 63 0
  64 001e 044B     		ldr	r3, .L3
  65 0020 0022     		mov	r2, #0
  66 0022 1A60     		str	r2, [r3]
  67              	.L2:
  64:.\main.c      ****     }    
  65:.\main.c      ****     
  66:.\main.c      ****     /* Clears interrupt request from terminal count */
  67:.\main.c      ****     PWM_ClearInterrupt(PWM_INTR_MASK_TC);
  68              		.loc 1 67 0
  69 0024 0120     		mov	r0, #1
  70 0026 FFF7FEFF 		bl	PWM_ClearInterrupt
  68:.\main.c      **** }
  71              		.loc 1 68 0
  72 002a BD46     		mov	sp, r7
  73              		@ sp needed
  74 002c 80BD     		pop	{r7, pc}
  75              	.L4:
  76 002e C046     		.align	2
  77              	.L3:
  78 0030 00000000 		.word	timer_delay
  79              		.cfi_endproc
  80              	.LFE33:
  81              		.size	ISR_TIMER_LOC, .-ISR_TIMER_LOC
  82              		.section	.text.ADC_SAR_SEQ_ISR_LOC,"ax",%progbits
  83              		.align	2
  84              		.global	ADC_SAR_SEQ_ISR_LOC
  85              		.code	16
  86              		.thumb_func
  87              		.type	ADC_SAR_SEQ_ISR_LOC, %function
  88              	ADC_SAR_SEQ_ISR_LOC:
  89              	.LFB34:
  69:.\main.c      **** 
  70:.\main.c      **** 
  71:.\main.c      **** /******************************************************************************
  72:.\main.c      **** * Function Name: ADC_SAR_SEQ_ISR_LOC
  73:.\main.c      **** *******************************************************************************
  74:.\main.c      **** *
  75:.\main.c      **** * Summary:
  76:.\main.c      **** *  Handle Interrupt Service Routine. Source - ADC SAR Seq.
  77:.\main.c      **** *
  78:.\main.c      **** ******************************************************************************/
  79:.\main.c      **** CY_ISR(ADC_SAR_SEQ_ISR_LOC)
  80:.\main.c      **** {
  90              		.loc 1 80 0
  91              		.cfi_startproc
ARM GAS  C:\Users\ELISHA~1\AppData\Local\Temp\ccorKkMb.s 			page 4


  92 0000 80B5     		push	{r7, lr}
  93              		.cfi_def_cfa_offset 8
  94              		.cfi_offset 7, -8
  95              		.cfi_offset 14, -4
  96 0002 82B0     		sub	sp, sp, #8
  97              		.cfi_def_cfa_offset 16
  98 0004 00AF     		add	r7, sp, #0
  99              		.cfi_def_cfa_register 7
  81:.\main.c      ****     uint32 intr_status;
  82:.\main.c      ****     uint32 range_status;
  83:.\main.c      **** 
  84:.\main.c      ****     /* Read interrupt status registers */
  85:.\main.c      ****     intr_status = ADC_SAR_SEQ_SAR_INTR_MASKED_REG;
 100              		.loc 1 85 0
 101 0006 1E4B     		ldr	r3, .L9
 102 0008 1B68     		ldr	r3, [r3]
 103 000a 7B60     		str	r3, [r7, #4]
  86:.\main.c      ****     /* Check for End of Scan interrupt */
  87:.\main.c      ****     if((intr_status & ADC_SAR_SEQ_EOS_MASK) != 0u)
 104              		.loc 1 87 0
 105 000c 7B68     		ldr	r3, [r7, #4]
 106 000e 0122     		mov	r2, #1
 107 0010 1340     		and	r3, r2
 108 0012 1DD0     		beq	.L6
  88:.\main.c      ****     {
  89:.\main.c      ****         /* Read range detect status */
  90:.\main.c      ****         range_status = ADC_SAR_SEQ_SAR_RANGE_INTR_MASKED_REG;
 109              		.loc 1 90 0
 110 0014 1B4B     		ldr	r3, .L9+4
 111 0016 1B68     		ldr	r3, [r3]
 112 0018 3B60     		str	r3, [r7]
  91:.\main.c      ****         /* Verify that the conversion result met the condition Low_Limit <= Result < High_Limit  */
  92:.\main.c      ****         if((range_status & (uint32)(1ul << CH0_N)) != 0u) 
 113              		.loc 1 92 0
 114 001a 3B68     		ldr	r3, [r7]
 115 001c 0122     		mov	r2, #1
 116 001e 1340     		and	r3, r2
 117 0020 0DD0     		beq	.L7
  93:.\main.c      ****         {
  94:.\main.c      ****             /* Read conversion result */
  95:.\main.c      ****             result[CH0_N] = ADC_SAR_SEQ_GetResult16(CH0_N);
 118              		.loc 1 95 0
 119 0022 0020     		mov	r0, #0
 120 0024 FFF7FEFF 		bl	ADC_SAR_SEQ_GetResult16
 121 0028 031C     		mov	r3, r0
 122 002a 1A1C     		mov	r2, r3
 123 002c 164B     		ldr	r3, .L9+8
 124 002e 1A80     		strh	r2, [r3]
  96:.\main.c      ****             /* Set PWM compare from channel0 */
  97:.\main.c      ****             PWM_WriteCompare(result[CH0_N]);
 125              		.loc 1 97 0
 126 0030 154B     		ldr	r3, .L9+8
 127 0032 1B88     		ldrh	r3, [r3]
 128 0034 9BB2     		uxth	r3, r3
 129 0036 1BB2     		sxth	r3, r3
 130 0038 181C     		mov	r0, r3
 131 003a FFF7FEFF 		bl	PWM_WriteCompare
ARM GAS  C:\Users\ELISHA~1\AppData\Local\Temp\ccorKkMb.s 			page 5


 132              	.L7:
  98:.\main.c      ****         }    
  99:.\main.c      **** 
 100:.\main.c      ****         /* Clear range detect status */
 101:.\main.c      ****         ADC_SAR_SEQ_SAR_RANGE_INTR_REG = range_status;
 133              		.loc 1 101 0
 134 003e 134B     		ldr	r3, .L9+12
 135 0040 3A68     		ldr	r2, [r7]
 136 0042 1A60     		str	r2, [r3]
 102:.\main.c      ****         dataReady |= ADC_SAR_SEQ_EOS_MASK;
 137              		.loc 1 102 0
 138 0044 124B     		ldr	r3, .L9+16
 139 0046 1B68     		ldr	r3, [r3]
 140 0048 0122     		mov	r2, #1
 141 004a 1A43     		orr	r2, r3
 142 004c 104B     		ldr	r3, .L9+16
 143 004e 1A60     		str	r2, [r3]
 144              	.L6:
 103:.\main.c      ****     }    
 104:.\main.c      **** 
 105:.\main.c      ****     /* Check for Injection End of Conversion */
 106:.\main.c      ****     if((intr_status & ADC_SAR_SEQ_INJ_EOC_MASK) != 0u)
 145              		.loc 1 106 0
 146 0050 7B68     		ldr	r3, [r7, #4]
 147 0052 1022     		mov	r2, #16
 148 0054 1340     		and	r3, r2
 149 0056 0CD0     		beq	.L8
 107:.\main.c      ****     {
 108:.\main.c      ****         result[TEMP_CH] = ADC_SAR_SEQ_GetResult16(TEMP_CH);
 150              		.loc 1 108 0
 151 0058 0120     		mov	r0, #1
 152 005a FFF7FEFF 		bl	ADC_SAR_SEQ_GetResult16
 153 005e 031C     		mov	r3, r0
 154 0060 1A1C     		mov	r2, r3
 155 0062 094B     		ldr	r3, .L9+8
 156 0064 5A80     		strh	r2, [r3, #2]
 109:.\main.c      ****         dataReady |= ADC_SAR_SEQ_INJ_EOC_MASK;
 157              		.loc 1 109 0
 158 0066 0A4B     		ldr	r3, .L9+16
 159 0068 1B68     		ldr	r3, [r3]
 160 006a 1022     		mov	r2, #16
 161 006c 1A43     		orr	r2, r3
 162 006e 084B     		ldr	r3, .L9+16
 163 0070 1A60     		str	r2, [r3]
 164              	.L8:
 110:.\main.c      ****     }    
 111:.\main.c      **** 
 112:.\main.c      ****     /* Clear handled interrupt */
 113:.\main.c      ****     ADC_SAR_SEQ_SAR_INTR_REG = intr_status;
 165              		.loc 1 113 0
 166 0072 084B     		ldr	r3, .L9+20
 167 0074 7A68     		ldr	r2, [r7, #4]
 168 0076 1A60     		str	r2, [r3]
 114:.\main.c      **** }
 169              		.loc 1 114 0
 170 0078 BD46     		mov	sp, r7
 171 007a 02B0     		add	sp, sp, #8
ARM GAS  C:\Users\ELISHA~1\AppData\Local\Temp\ccorKkMb.s 			page 6


 172              		@ sp needed
 173 007c 80BD     		pop	{r7, pc}
 174              	.L10:
 175 007e C046     		.align	2
 176              	.L9:
 177 0080 1C021A40 		.word	1075446300
 178 0084 3C021A40 		.word	1075446332
 179 0088 00000000 		.word	result
 180 008c 30021A40 		.word	1075446320
 181 0090 00000000 		.word	dataReady
 182 0094 10021A40 		.word	1075446288
 183              		.cfi_endproc
 184              	.LFE34:
 185              		.size	ADC_SAR_SEQ_ISR_LOC, .-ADC_SAR_SEQ_ISR_LOC
 186              		.section	.rodata
 187              		.align	2
 188              	.LC3:
 189 0000 53746172 		.ascii	"Starting temperature measurement...\000"
 189      74696E67 
 189      2074656D 
 189      70657261 
 189      74757265 
 190              		.align	2
 191              	.LC9:
 192 0024 54656D70 		.ascii	"Temperature value: %dC\000"
 192      65726174 
 192      75726520 
 192      76616C75 
 192      653A2025 
 193 003b 00       		.align	2
 194              	.LC11:
 195 003c 41444320 		.ascii	"ADC measured voltage: %dmV\000"
 195      6D656173 
 195      75726564 
 195      20766F6C 
 195      74616765 
 196 0057 00       		.section	.text.main,"ax",%progbits
 197              		.align	2
 198              		.global	main
 199              		.code	16
 200              		.thumb_func
 201              		.type	main, %function
 202              	main:
 203              	.LFB35:
 115:.\main.c      **** 
 116:.\main.c      **** 
 117:.\main.c      **** /*******************************************************************************
 118:.\main.c      **** * Function Name: main
 119:.\main.c      **** ********************************************************************************
 120:.\main.c      **** *
 121:.\main.c      **** * Summary:
 122:.\main.c      **** *
 123:.\main.c      **** * Parameters:
 124:.\main.c      **** *  None.
 125:.\main.c      **** *
 126:.\main.c      **** * Return:
 127:.\main.c      **** *  None.
ARM GAS  C:\Users\ELISHA~1\AppData\Local\Temp\ccorKkMb.s 			page 7


 128:.\main.c      **** *
 129:.\main.c      **** *******************************************************************************/
 130:.\main.c      **** int main()
 131:.\main.c      **** {
 204              		.loc 1 131 0
 205              		.cfi_startproc
 206 0000 90B5     		push	{r4, r7, lr}
 207              		.cfi_def_cfa_offset 12
 208              		.cfi_offset 4, -12
 209              		.cfi_offset 7, -8
 210              		.cfi_offset 14, -4
 211 0002 C3B0     		sub	sp, sp, #268
 212              		.cfi_def_cfa_offset 280
 213 0004 00AF     		add	r7, sp, #0
 214              		.cfi_def_cfa_register 7
 132:.\main.c      ****     int16 res = 0;
 215              		.loc 1 132 0
 216 0006 FB1D     		add	r3, r7, #7
 217 0008 FF33     		add	r3, r3, #255
 218 000a 0022     		mov	r2, #0
 219 000c 1A80     		strh	r2, [r3]
 133:.\main.c      ****     int32 temperature;
 134:.\main.c      ****     char  uartLine[250];
 135:.\main.c      ****     int16 ADCCountsCorrected;
 136:.\main.c      **** 
 137:.\main.c      ****     /* Initialize the UART */
 138:.\main.c      ****     UART_Start();
 220              		.loc 1 138 0
 221 000e FFF7FEFF 		bl	UART_Start
 139:.\main.c      ****     UART_PutCRLF();
 222              		.loc 1 139 0
 223 0012 FFF7FEFF 		bl	UART_PutCRLF
 140:.\main.c      ****     UART_PutCRLF();
 224              		.loc 1 140 0
 225 0016 FFF7FEFF 		bl	UART_PutCRLF
 141:.\main.c      ****     UART_PutString("Starting temperature measurement...");
 226              		.loc 1 141 0
 227 001a 384B     		ldr	r3, .L15
 228 001c 181C     		mov	r0, r3
 229 001e FFF7FEFF 		bl	UART_PutString
 142:.\main.c      ****     UART_PutCRLF();
 230              		.loc 1 142 0
 231 0022 FFF7FEFF 		bl	UART_PutCRLF
 143:.\main.c      ****     
 144:.\main.c      ****     PWM_Start();
 232              		.loc 1 144 0
 233 0026 FFF7FEFF 		bl	PWM_Start
 145:.\main.c      ****     PWM_TriggerCommand(PWM_MASK, PWM_CMD_START);
 234              		.loc 1 145 0
 235 002a 0120     		mov	r0, #1
 236 002c 1821     		mov	r1, #24
 237 002e FFF7FEFF 		bl	PWM_TriggerCommand
 146:.\main.c      **** 
 147:.\main.c      ****     /* Init and start sequencing SAR ADC */
 148:.\main.c      ****     ADC_SAR_SEQ_Start();
 238              		.loc 1 148 0
 239 0032 FFF7FEFF 		bl	ADC_SAR_SEQ_Start
ARM GAS  C:\Users\ELISHA~1\AppData\Local\Temp\ccorKkMb.s 			page 8


 149:.\main.c      ****     ADC_SAR_SEQ_StartConvert();
 240              		.loc 1 149 0
 241 0036 FFF7FEFF 		bl	ADC_SAR_SEQ_StartConvert
 150:.\main.c      ****     /* Enable interrupt and set interrupt handler to local routine */
 151:.\main.c      ****     ADC_SAR_SEQ_IRQ_StartEx(ADC_SAR_SEQ_ISR_LOC);
 242              		.loc 1 151 0
 243 003a 314B     		ldr	r3, .L15+4
 244 003c 181C     		mov	r0, r3
 245 003e FFF7FEFF 		bl	ADC_SAR_SEQ_IRQ_StartEx
 152:.\main.c      ****     
 153:.\main.c      ****     /* Init interrupt from timer to measure the temperature rarely */
 154:.\main.c      ****     ISR_TIMER_StartEx(ISR_TIMER_LOC);
 246              		.loc 1 154 0
 247 0042 304B     		ldr	r3, .L15+8
 248 0044 181C     		mov	r0, r3
 249 0046 FFF7FEFF 		bl	ISR_TIMER_StartEx
 155:.\main.c      **** 
 156:.\main.c      ****     CyGlobalIntEnable;
 250              		.loc 1 156 0
 251              	@ 156 ".\main.c" 1
 252 004a 62B6     		CPSIE   i
 253              	@ 0 "" 2
 254              		.code	16
 255              	.L14:
 157:.\main.c      **** 
 158:.\main.c      ****     for(;;)
 159:.\main.c      ****     {
 160:.\main.c      ****         /* When conversion of sequencing channels has completed */
 161:.\main.c      ****         if((dataReady & ADC_SAR_SEQ_EOS_MASK) != 0u)
 256              		.loc 1 161 0
 257 004c 2E4B     		ldr	r3, .L15+12
 258 004e 1B68     		ldr	r3, [r3]
 259 0050 0122     		mov	r2, #1
 260 0052 1340     		and	r3, r2
 261 0054 12D0     		beq	.L12
 162:.\main.c      ****         {
 163:.\main.c      ****             /* Get voltage, measured by ADC */
 164:.\main.c      ****             dataReady &= ~ADC_SAR_SEQ_EOS_MASK;
 262              		.loc 1 164 0
 263 0056 2C4B     		ldr	r3, .L15+12
 264 0058 1B68     		ldr	r3, [r3]
 265 005a 0122     		mov	r2, #1
 266 005c 9343     		bic	r3, r2
 267 005e 1A1C     		mov	r2, r3
 268 0060 294B     		ldr	r3, .L15+12
 269 0062 1A60     		str	r2, [r3]
 165:.\main.c      ****             res = ADC_SAR_SEQ_CountsTo_mVolts(CH0_N, result[CH0_N]);
 270              		.loc 1 165 0
 271 0064 294B     		ldr	r3, .L15+16
 272 0066 1B88     		ldrh	r3, [r3]
 273 0068 9BB2     		uxth	r3, r3
 274 006a FC1D     		add	r4, r7, #7
 275 006c FF34     		add	r4, r4, #255
 276 006e 1BB2     		sxth	r3, r3
 277 0070 0020     		mov	r0, #0
 278 0072 191C     		mov	r1, r3
 279 0074 FFF7FEFF 		bl	ADC_SAR_SEQ_CountsTo_mVolts
ARM GAS  C:\Users\ELISHA~1\AppData\Local\Temp\ccorKkMb.s 			page 9


 280 0078 031C     		mov	r3, r0
 281 007a 2380     		strh	r3, [r4]
 282              	.L12:
 166:.\main.c      ****         }    
 167:.\main.c      ****         
 168:.\main.c      ****         /* When conversion of the injection channel has completed */
 169:.\main.c      ****         if((dataReady & ADC_SAR_SEQ_INJ_EOC_MASK) != 0u)
 283              		.loc 1 169 0
 284 007c 224B     		ldr	r3, .L15+12
 285 007e 1B68     		ldr	r3, [r3]
 286 0080 1022     		mov	r2, #16
 287 0082 1340     		and	r3, r2
 288 0084 39D0     		beq	.L13
 170:.\main.c      ****         {
 171:.\main.c      ****             dataReady &= ~ADC_SAR_SEQ_INJ_EOC_MASK;
 289              		.loc 1 171 0
 290 0086 204B     		ldr	r3, .L15+12
 291 0088 1B68     		ldr	r3, [r3]
 292 008a 1022     		mov	r2, #16
 293 008c 9343     		bic	r3, r2
 294 008e 1A1C     		mov	r2, r3
 295 0090 1D4B     		ldr	r3, .L15+12
 296 0092 1A60     		str	r2, [r3]
 172:.\main.c      **** 
 173:.\main.c      ****             /******************************************************************************
 174:.\main.c      ****             * Adjust data from ADC with respect to Vref value.
 175:.\main.c      ****             * This adjustment is to be done if Vref is set to any other than
 176:.\main.c      ****             * internal 1.024V.
 177:.\main.c      ****             * For more detailed description see Functional Description section
 178:.\main.c      ****             * of DieTemp P4 datasheet.
 179:.\main.c      ****             *******************************************************************************/
 180:.\main.c      ****             ADCCountsCorrected = result[TEMP_CH]*((int16)((float)ADC_VREF_VALUE_V/1.024));
 297              		.loc 1 180 0
 298 0094 7B1D     		add	r3, r7, #5
 299 0096 FF33     		add	r3, r3, #255
 300 0098 1C4A     		ldr	r2, .L15+16
 301 009a 5288     		ldrh	r2, [r2, #2]
 302 009c 1A80     		strh	r2, [r3]
 181:.\main.c      ****             
 182:.\main.c      ****             temperature = DieTemp_CountsTo_Celsius(ADCCountsCorrected);
 303              		.loc 1 182 0
 304 009e 7B1D     		add	r3, r7, #5
 305 00a0 FF33     		add	r3, r3, #255
 306 00a2 0022     		mov	r2, #0
 307 00a4 9B5E     		ldrsh	r3, [r3, r2]
 308 00a6 181C     		mov	r0, r3
 309 00a8 FFF7FEFF 		bl	DieTemp_CountsTo_Celsius
 310 00ac 031C     		mov	r3, r0
 311 00ae 7A1C     		add	r2, r7, #1
 312 00b0 FF32     		add	r2, r2, #255
 313 00b2 1360     		str	r3, [r2]
 183:.\main.c      **** 
 184:.\main.c      ****             /* Print temperature value to UART */
 185:.\main.c      ****             sprintf(
 186:.\main.c      ****                     uartLine, "Temperature value: %dC",
 187:.\main.c      ****                     (int16) temperature
 314              		.loc 1 187 0
ARM GAS  C:\Users\ELISHA~1\AppData\Local\Temp\ccorKkMb.s 			page 10


 315 00b4 7B1C     		add	r3, r7, #1
 316 00b6 FF33     		add	r3, r3, #255
 317 00b8 1B68     		ldr	r3, [r3]
 318 00ba 9BB2     		uxth	r3, r3
 185:.\main.c      ****                     uartLine, "Temperature value: %dC",
 319              		.loc 1 185 0
 320 00bc 1BB2     		sxth	r3, r3
 321 00be 391D     		add	r1, r7, #4
 322 00c0 134A     		ldr	r2, .L15+20
 323 00c2 081C     		mov	r0, r1
 324 00c4 111C     		mov	r1, r2
 325 00c6 1A1C     		mov	r2, r3
 326 00c8 FFF7FEFF 		bl	sprintf
 188:.\main.c      ****                     );
 189:.\main.c      ****             
 190:.\main.c      ****             UART_PutString(uartLine);
 327              		.loc 1 190 0
 328 00cc 3B1D     		add	r3, r7, #4
 329 00ce 181C     		mov	r0, r3
 330 00d0 FFF7FEFF 		bl	UART_PutString
 191:.\main.c      ****             UART_PutCRLF();
 331              		.loc 1 191 0
 332 00d4 FFF7FEFF 		bl	UART_PutCRLF
 192:.\main.c      ****             
 193:.\main.c      ****             /* Print voltage value to UART */
 194:.\main.c      ****             sprintf(
 195:.\main.c      ****                 uartLine, "ADC measured voltage: %dmV",
 196:.\main.c      ****                 (uint16) res
 333              		.loc 1 196 0
 334 00d8 FB1D     		add	r3, r7, #7
 335 00da FF33     		add	r3, r3, #255
 336 00dc 1B88     		ldrh	r3, [r3]
 194:.\main.c      ****                 uartLine, "ADC measured voltage: %dmV",
 337              		.loc 1 194 0
 338 00de 1C1C     		mov	r4, r3
 339 00e0 3A1D     		add	r2, r7, #4
 340 00e2 0C4B     		ldr	r3, .L15+24
 341 00e4 101C     		mov	r0, r2
 342 00e6 191C     		mov	r1, r3
 343 00e8 221C     		mov	r2, r4
 344 00ea FFF7FEFF 		bl	sprintf
 197:.\main.c      ****                 );
 198:.\main.c      ****             
 199:.\main.c      ****             UART_PutString(uartLine);
 345              		.loc 1 199 0
 346 00ee 3B1D     		add	r3, r7, #4
 347 00f0 181C     		mov	r0, r3
 348 00f2 FFF7FEFF 		bl	UART_PutString
 200:.\main.c      ****             UART_PutCRLF();
 349              		.loc 1 200 0
 350 00f6 FFF7FEFF 		bl	UART_PutCRLF
 351              	.L13:
 201:.\main.c      ****         }
 202:.\main.c      ****     }
 352              		.loc 1 202 0
 353 00fa A7E7     		b	.L14
 354              	.L16:
ARM GAS  C:\Users\ELISHA~1\AppData\Local\Temp\ccorKkMb.s 			page 11


 355              		.align	2
 356              	.L15:
 357 00fc 00000000 		.word	.LC3
 358 0100 00000000 		.word	ADC_SAR_SEQ_ISR_LOC
 359 0104 00000000 		.word	ISR_TIMER_LOC
 360 0108 00000000 		.word	dataReady
 361 010c 00000000 		.word	result
 362 0110 24000000 		.word	.LC9
 363 0114 3C000000 		.word	.LC11
 364              		.cfi_endproc
 365              	.LFE35:
 366              		.size	main, .-main
 367              		.text
 368              	.Letext0:
 369              		.file 2 "Generated_Source\\PSoC4/cytypes.h"